Component: ARM Compiler 5.05 update 2 (build 169) Tool: armlink [4d0f33]

==============================================================================

Section Cross References

    app_test.o(i.Test_Main) refers to dfltui.o(.text) for __aeabi_ui2d
    app_test.o(i.Test_Main) refers to os_ui.o(i.OS_Decim_Show) for OS_Decim_Show
    app_test.o(i.Test_Main) refers to app_test.o(.data) for Num
    app_test.o(.data) refers to app_test.o(i.Test_Main) for Test_Main
    app_test.o(.data) refers to app_test.o(.conststring) for .conststring
    app_key.o(i.Key_Clear) refers to app_key.o(.bss) for Key
    app_key.o(i.Key_Get) refers to app_key.o(.bss) for Key
    app_key.o(i.Key_Main) refers to app_key.o(.bss) for Key
    app_key.o(i.Key_Now_Get) refers to app_key.o(.bss) for Key
    app_key.o(i.Key_Scan_Main) refers to app_key.o(.bss) for Key
    app_key.o(i.Key_Start) refers to drive_gpio.o(i.GPIO_Key_Init) for GPIO_Key_Init
    app_key.o(i.Key_Start) refers to os_manage.o(i.OSTask_Creat) for OSTask_Creat
    app_key.o(i.Key_Start) refers to app_key.o(.data) for first
    app_key.o(.data) refers to app_key.o(i.Key_Main) for Key_Main
    app_key.o(.data) refers to app_key.o(i.Key_Start) for Key_Start
    app_key.o(.data) refers to app_key.o(.conststring) for .conststring
    app_key.o(.data) refers to app_key.o(i.Key_Scan_Main) for Key_Scan_Main
    app_smallcar.o(i.SmallCar_BalanceScan_Main) refers to drive_usart.o(i.Revise_PID) for Revise_PID
    app_smallcar.o(i.SmallCar_BalanceScan_Main) refers to app_tracking.o(i.SmallCar_Tracking) for SmallCar_Tracking
    app_smallcar.o(i.SmallCar_BalanceScan_Main) refers to app_tracking.o(i.Balance_Control) for Balance_Control
    app_smallcar.o(i.SmallCar_BalanceScan_Main) refers to os_startfile.o(i.OSdelay_ms) for OSdelay_ms
    app_smallcar.o(i.SmallCar_BalanceScan_Main) refers to app_smallcar.o(.data) for Tracking_Open_Flag
    app_smallcar.o(i.SmallCar_BalanceScan_Main) refers to mpu6050.o(.data) for Gyro_Balance
    app_smallcar.o(.data) refers to app_smallcar.o(i.SmallCar_BalanceScan_Main) for SmallCar_BalanceScan_Main
    app_smallcar.o(.data) refers to app_smallcar.o(.conststring) for .conststring
    app_tracking.o(i.Balance_Control) refers to cfcmple.o(.text) for __aeabi_cfcmple
    app_tracking.o(i.Balance_Control) refers to cfrcmple.o(.text) for __aeabi_cfrcmple
    app_tracking.o(i.Balance_Control) refers to app_tracking.o(i.Wind_Balance_PID) for Wind_Balance_PID
    app_tracking.o(i.Balance_Control) refers to my_pwm.o(i.RighA_Moto_select) for RighA_Moto_select
    app_tracking.o(i.Balance_Control) refers to my_pwm.o(i.LeftA_Moto_select) for LeftA_Moto_select
    app_tracking.o(i.Balance_Control) refers to my_pwm.o(i.RighB_Moto_select) for RighB_Moto_select
    app_tracking.o(i.Balance_Control) refers to my_pwm.o(i.LeftB_Moto_select) for LeftB_Moto_select
    app_tracking.o(i.Balance_Control) refers to f2d.o(.text) for __aeabi_f2d
    app_tracking.o(i.Balance_Control) refers to os_ui.o(i.OS_Decim_Show) for OS_Decim_Show
    app_tracking.o(i.Balance_Control) refers to app_smallcar.o(.data) for Blance_GetData_Flag
    app_tracking.o(i.Balance_Control) refers to mpu6050.o(.data) for Angle_Balance
    app_tracking.o(i.EasyPID) refers to drive_smallcar.o(i.SmallCar_Right_Control) for SmallCar_Right_Control
    app_tracking.o(i.EasyPID) refers to drive_smallcar.o(i.SmallCar_Left_Control) for SmallCar_Left_Control
    app_tracking.o(i.EasyPID) refers to app_tracking.o(.data) for LastState
    app_tracking.o(i.EasyPID) refers to app_smallcar.o(.data) for Stop_Moto
    app_tracking.o(i.SmallCar_ChannelScan_Main) refers to app_tracking.o(i.quick_sort) for quick_sort
    app_tracking.o(i.SmallCar_ChannelScan_Main) refers to dfltui.o(.text) for __aeabi_ui2d
    app_tracking.o(i.SmallCar_ChannelScan_Main) refers to os_ui.o(i.OS_Decim_Show) for OS_Decim_Show
    app_tracking.o(i.SmallCar_ChannelScan_Main) refers to app_tracking.o(i.EasyPID) for EasyPID
    app_tracking.o(i.SmallCar_ChannelScan_Main) refers to os_ui.o(i.OS_String_Show) for OS_String_Show
    app_tracking.o(i.SmallCar_ChannelScan_Main) refers to drive_smallcar.o(.bss) for SmallCar
    app_tracking.o(i.SmallCar_Tracking) refers to dfltui.o(.text) for __aeabi_ui2d
    app_tracking.o(i.SmallCar_Tracking) refers to os_ui.o(i.OS_Decim_Show) for OS_Decim_Show
    app_tracking.o(i.SmallCar_Tracking) refers to drive_smallcar.o(.bss) for SmallCar
    app_tracking.o(i.Wind_Balance_PID) refers to userpid.o(i.pidIncrement) for pidIncrement
    app_tracking.o(i.Wind_Balance_PID) refers to fmul.o(.text) for __aeabi_fmul
    app_tracking.o(i.Wind_Balance_PID) refers to fadd.o(.text) for __aeabi_fadd
    app_tracking.o(i.Wind_Balance_PID) refers to ffixi.o(.text) for __aeabi_f2iz
    app_tracking.o(i.Wind_Balance_PID) refers to cfcmple.o(.text) for __aeabi_cfcmple
    app_tracking.o(i.Wind_Balance_PID) refers to drive_smallcar.o(i.SmallCar_Front_Control) for SmallCar_Front_Control
    app_tracking.o(i.Wind_Balance_PID) refers to cfrcmple.o(.text) for __aeabi_cfrcmple
    app_tracking.o(i.Wind_Balance_PID) refers to drive_smallcar.o(i.SmallCar_Behind_Control) for SmallCar_Behind_Control
    app_tracking.o(i.Wind_Balance_PID) refers to dflti.o(.text) for __aeabi_i2d
    app_tracking.o(i.Wind_Balance_PID) refers to os_ui.o(i.OS_Decim_Show) for OS_Decim_Show
    app_tracking.o(i.Wind_Balance_PID) refers to app_tracking.o(.data) for now
    app_tracking.o(i.Wind_Turn_PID) refers to drive_smallcar.o(i.SmallCar_Left_Control) for SmallCar_Left_Control
    app_tracking.o(i.Wind_Turn_PID) refers to drive_smallcar.o(i.SmallCar_Right_Control) for SmallCar_Right_Control
    app_tracking.o(i.Wind_Turn_PID) refers to ffixi.o(.text) for __aeabi_f2iz
    app_tracking.o(i.Wind_Turn_PID) refers to app_tracking.o(.data) for output_leftPWM
    app_windcar.o(i.App_WindCar_Main) refers to memseta.o(.text) for __aeabi_memclr4
    app_windcar.o(i.App_WindCar_Main) refers to f2d.o(.text) for __aeabi_f2d
    app_windcar.o(i.App_WindCar_Main) refers to printfa.o(i.__0sprintf) for __2sprintf
    app_windcar.o(i.App_WindCar_Main) refers to os_ui.o(i.OS_String_Show) for OS_String_Show
    app_windcar.o(i.App_WindCar_Main) refers to fflti.o(.text) for __aeabi_i2f
    app_windcar.o(i.App_WindCar_Main) refers to adc.o(i.Get_Adc2_Average) for Get_Adc2_Average
    app_windcar.o(i.App_WindCar_Main) refers to ffltui.o(.text) for __aeabi_ui2f
    app_windcar.o(i.App_WindCar_Main) refers to fdiv.o(.text) for __aeabi_fdiv
    app_windcar.o(i.App_WindCar_Main) refers to dmul.o(.text) for __aeabi_dmul
    app_windcar.o(i.App_WindCar_Main) refers to dadd.o(.text) for __aeabi_dsub
    app_windcar.o(i.App_WindCar_Main) refers to mpu6050.o(.data) for Angle_Balance
    app_windcar.o(i.App_WindCar_Main) refers to drive_windcar_control.o(.data) for PWM_Pre
    app_windcar.o(i.App_WindCar_Start) refers to os_manage.o(i.OSTask_Creat) for OSTask_Creat
    app_windcar.o(i.App_WindCar_Start) refers to app_windcar_control.o(.data) for App_WindCar_Control
    app_windcar.o(.data) refers to app_windcar.o(i.App_WindCar_Main) for App_WindCar_Main
    app_windcar.o(.data) refers to app_windcar.o(i.App_WindCar_Start) for App_WindCar_Start
    app_windcar.o(.data) refers to app_windcar.o(.conststring) for .conststring
    app_windcar_control.o(i.WindCar_Control_Main) refers to drive_windcar_control.o(i.PID_Control) for PID_Control
    app_windcar_control.o(i.WindCar_Control_Start) refers to drive_smallcar.o(i.SmallCar_Init) for SmallCar_Init
    app_windcar_control.o(.data) refers to app_windcar_control.o(i.WindCar_Control_Main) for WindCar_Control_Main
    app_windcar_control.o(.data) refers to app_windcar_control.o(i.WindCar_Control_Start) for WindCar_Control_Start
    app_windcar_control.o(.data) refers to app_windcar_control.o(.conststring) for .conststring
    main.o(i.main) refers to os_startfile.o(i.OS_Init) for OS_Init
    main.o(i.main) refers to os_manage.o(i.OSTask_Creat) for OSTask_Creat
    main.o(i.main) refers to os_run.o(i.OSThread_Free) for OSThread_Free
    main.o(i.main) refers to app_windcar.o(.data) for App_WindCar
    userpid.o(i.my_pidIncrement) refers to fadd.o(.text) for __aeabi_fsub
    userpid.o(i.my_pidIncrement) refers to f2d.o(.text) for __aeabi_f2d
    userpid.o(i.my_pidIncrement) refers to cdrcmple.o(.text) for __aeabi_cdrcmple
    userpid.o(i.my_pidIncrement) refers to cdcmple.o(.text) for __aeabi_cdcmple
    userpid.o(i.my_pidIncrement) refers to dmul.o(.text) for __aeabi_dmul
    userpid.o(i.my_pidIncrement) refers to dadd.o(.text) for __aeabi_dsub
    userpid.o(i.my_pidIncrement) refers to fmul.o(.text) for __aeabi_fmul
    userpid.o(i.my_pidIncrement) refers to d2f.o(.text) for __aeabi_d2f
    userpid.o(i.my_pidIncrement) refers to userpid.o(.bss) for my_pid_value
    userpid.o(i.my_pidLocation) refers to fadd.o(.text) for __aeabi_fsub
    userpid.o(i.my_pidLocation) refers to f2d.o(.text) for __aeabi_f2d
    userpid.o(i.my_pidLocation) refers to cdrcmple.o(.text) for __aeabi_cdrcmple
    userpid.o(i.my_pidLocation) refers to cdcmple.o(.text) for __aeabi_cdcmple
    userpid.o(i.my_pidLocation) refers to fmul.o(.text) for __aeabi_fmul
    userpid.o(i.my_pidLocation) refers to userpid.o(.bss) for my_pid_value
    userpid.o(i.pidIncrement) refers to fadd.o(.text) for __aeabi_fsub
    userpid.o(i.pidIncrement) refers to f2d.o(.text) for __aeabi_f2d
    userpid.o(i.pidIncrement) refers to cdrcmple.o(.text) for __aeabi_cdrcmple
    userpid.o(i.pidIncrement) refers to cdcmple.o(.text) for __aeabi_cdcmple
    userpid.o(i.pidIncrement) refers to dmul.o(.text) for __aeabi_dmul
    userpid.o(i.pidIncrement) refers to dadd.o(.text) for __aeabi_dsub
    userpid.o(i.pidIncrement) refers to fmul.o(.text) for __aeabi_fmul
    userpid.o(i.pidIncrement) refers to d2f.o(.text) for __aeabi_d2f
    userpid.o(i.pidIncrement) refers to userpid.o(.bss) for Extern_pid_value
    userpid.o(i.pidInit) refers to userpid.o(.bss) for Extern_pid_value
    userpid.o(i.pidInit) refers to userpid.o(.data) for PID_P
    userpid.o(i.pidLocation) refers to fadd.o(.text) for __aeabi_fsub
    userpid.o(i.pidLocation) refers to f2d.o(.text) for __aeabi_f2d
    userpid.o(i.pidLocation) refers to cdrcmple.o(.text) for __aeabi_cdrcmple
    userpid.o(i.pidLocation) refers to cdcmple.o(.text) for __aeabi_cdcmple
    userpid.o(i.pidLocation) refers to fmul.o(.text) for __aeabi_fmul
    userpid.o(i.pidLocation) refers to userpid.o(.bss) for Extern_pid_value
    os_startfile.o(i.OS_Init) refers to misc.o(i.NVIC_PriorityGroupConfig) for NVIC_PriorityGroupConfig
    os_startfile.o(i.OS_Init) refers to system_stm32f10x.o(i.SystemInit) for SystemInit
    os_startfile.o(i.OS_Init) refers to drive_timer.o(i.TIM2_Init) for TIM2_Init
    os_startfile.o(i.OS_Init) refers to drive_timer.o(i.TIM3_Init) for TIM3_Init
    os_startfile.o(i.OS_Init) refers to drive_timer.o(i.TIM4_Init) for TIM4_Init
    os_startfile.o(i.OS_Init) refers to os_ui.o(i.OS_UI_Init) for OS_UI_Init
    os_startfile.o(i.OSdelay_ms) refers to stm32f10x_tim.o(i.TIM_GetCounter) for TIM_GetCounter
    os_startfile.o(i.OSdelay_ms) refers to os_startfile.o(.data) for OS_Clock
    os_startfile.o(i.OSdelay_s) refers to os_startfile.o(i.OSdelay_ms) for OSdelay_ms
    os_startfile.o(i.OSdelay_us) refers to stm32f10x_tim.o(i.TIM_GetCounter) for TIM_GetCounter
    os_startfile.o(i.OSdelay_us) refers to os_startfile.o(.data) for OS_Clock
    os_manage.o(i.OSRunning_Break) refers to os_startfile.o(.data) for OS_Msg
    os_manage.o(i.OSRunning_Continue) refers to os_startfile.o(.data) for OS_Msg
    os_manage.o(i.OSTask_Alter) refers to os_manage.o(.bss) for AppHead
    os_manage.o(i.OSTask_Creat) refers to os_manage.o(.bss) for AppHead
    os_manage.o(i.OSTask_Remove) refers to malloc.o(i.free) for free
    os_manage.o(i.OSTask_Remove) refers to os_manage.o(.bss) for AppHead
    os_manage.o(i.OSTask_State) refers to os_manage.o(.bss) for AppHead
    os_ui.o(i.OS_Clear) refers to drive_oled.o(i.OLED_CLS) for OLED_CLS
    os_ui.o(i.OS_Decim_Show) refers to memseta.o(.text) for __aeabi_memclr4
    os_ui.o(i.OS_Decim_Show) refers to cdcmple.o(.text) for __aeabi_cdcmple
    os_ui.o(i.OS_Decim_Show) refers to dfixui.o(.text) for __aeabi_d2uiz
    os_ui.o(i.OS_Decim_Show) refers to dfltui.o(.text) for __aeabi_ui2d
    os_ui.o(i.OS_Decim_Show) refers to pow.o(i.pow) for pow
    os_ui.o(i.OS_Decim_Show) refers to dadd.o(.text) for __aeabi_drsub
    os_ui.o(i.OS_Decim_Show) refers to dmul.o(.text) for __aeabi_dmul
    os_ui.o(i.OS_Decim_Show) refers to os_ui.o(i.OS_String_Show) for OS_String_Show
    os_ui.o(i.OS_Num_Show) refers to dflti.o(.text) for __aeabi_i2d
    os_ui.o(i.OS_Num_Show) refers to os_ui.o(i.OS_Decim_Show) for OS_Decim_Show
    os_ui.o(i.OS_String_Show) refers to drive_oled.o(i.LcdDisplay_HZ) for LcdDisplay_HZ
    os_ui.o(i.OS_String_Show) refers to os_ui.o(.data) for UseState
    os_ui.o(i.OS_UI_Init) refers to drive_oled.o(i.OLED_Init) for OLED_Init
    os_ui.o(i.OS_UI_Init) refers to os_ui.o(i.OS_Clear) for OS_Clear
    os_run.o(i.OSThread_4) refers to os_manage.o(.bss) for AppHead
    os_run.o(i.OSThread_5) refers to os_manage.o(.bss) for AppHead
    os_run.o(i.OSThread_6) refers to os_manage.o(.bss) for AppHead
    os_run.o(i.OSThread_6) refers to os_startfile.o(.data) for OS_Msg
    os_run.o(i.OSThread_7) refers to os_manage.o(.bss) for AppHead
    os_run.o(i.OSThread_Free) refers to os_manage.o(.bss) for AppHead
    os_run.o(i.OSThread_Free) refers to os_startfile.o(.data) for OS_Msg
    drive_windcar_control.o(i.PID_Control) refers to f2d.o(.text) for __aeabi_f2d
    drive_windcar_control.o(i.PID_Control) refers to dadd.o(.text) for __aeabi_dadd
    drive_windcar_control.o(i.PID_Control) refers to dmul.o(.text) for __aeabi_dmul
    drive_windcar_control.o(i.PID_Control) refers to dfixi.o(.text) for __aeabi_d2iz
    drive_windcar_control.o(i.PID_Control) refers to ddiv.o(.text) for __aeabi_ddiv
    drive_windcar_control.o(i.PID_Control) refers to cos.o(i.cos) for cos
    drive_windcar_control.o(i.PID_Control) refers to dflti.o(.text) for __aeabi_i2d
    drive_windcar_control.o(i.PID_Control) refers to drive_windcar_control.o(i.PWM_Set) for PWM_Set
    drive_windcar_control.o(i.PID_Control) refers to my_pwm.o(i.RighA_Moto_select) for RighA_Moto_select
    drive_windcar_control.o(i.PID_Control) refers to my_pwm.o(i.RighB_Moto_select) for RighB_Moto_select
    drive_windcar_control.o(i.PID_Control) refers to mpu6050.o(.data) for Angle_Balance
    drive_windcar_control.o(i.PID_Control) refers to drive_windcar_control.o(.data) for state
    drive_windcar_control.o(i.PWM_Set) refers to my_pwm.o(i.RighA_Moto_select) for RighA_Moto_select
    drive_windcar_control.o(i.PWM_Set) refers to my_pwm.o(i.RighB_Moto_select) for RighB_Moto_select
    drive_windcar_control.o(i.PWM_Set) refers to my_pwm.o(i.RighA_PWM) for RighA_PWM
    drive_windcar_control.o(i.PWM_Set) refers to my_pwm.o(i.RighB_PWM) for RighB_PWM
    drive_windcar_control.o(i.PWM_Set) refers to drive_windcar_control.o(.data) for PWM_Pre
    drive_smallcar.o(i.SmallCar_Behind_Control) refers to my_pwm.o(i.RighB_Moto_select) for RighB_Moto_select
    drive_smallcar.o(i.SmallCar_Behind_Control) refers to my_pwm.o(i.RighB_PWM) for RighB_PWM
    drive_smallcar.o(i.SmallCar_Front_Control) refers to my_pwm.o(i.RighA_Moto_select) for RighA_Moto_select
    drive_smallcar.o(i.SmallCar_Front_Control) refers to my_pwm.o(i.RighA_PWM) for RighA_PWM
    drive_smallcar.o(i.SmallCar_Init) refers to adc.o(i.InitAdc_Init) for InitAdc_Init
    drive_smallcar.o(i.SmallCar_Init) refers to os_ui.o(i.OS_String_Show) for OS_String_Show
    drive_smallcar.o(i.SmallCar_Init) refers to adc.o(i.Get_Adc2_Average) for Get_Adc2_Average
    drive_smallcar.o(i.SmallCar_Init) refers to dfltui.o(.text) for __aeabi_ui2d
    drive_smallcar.o(i.SmallCar_Init) refers to ddiv.o(.text) for __aeabi_ddiv
    drive_smallcar.o(i.SmallCar_Init) refers to dmul.o(.text) for __aeabi_dmul
    drive_smallcar.o(i.SmallCar_Init) refers to os_ui.o(i.OS_Decim_Show) for OS_Decim_Show
    drive_smallcar.o(i.SmallCar_Init) refers to drive_gpio.o(i.GPIO_Key_Init) for GPIO_Key_Init
    drive_smallcar.o(i.SmallCar_Init) refers to my_pwm.o(i.AMoto_Inti_select) for AMoto_Inti_select
    drive_smallcar.o(i.SmallCar_Init) refers to my_pwm.o(i.BMoto_Inti_select) for BMoto_Inti_select
    drive_smallcar.o(i.SmallCar_Init) refers to my_pwm.o(i.TIM3_PWM_Init) for TIM3_PWM_Init
    drive_smallcar.o(i.SmallCar_Init) refers to my_pwm.o(i.TIM1_PWM_Init) for TIM1_PWM_Init
    drive_smallcar.o(i.SmallCar_Init) refers to drive_ioi2c.o(i.IIC_Init) for IIC_Init
    drive_smallcar.o(i.SmallCar_Init) refers to drive_mpu6050.o(i.MPU6050_initialize) for MPU6050_initialize
    drive_smallcar.o(i.SmallCar_Init) refers to drive_mpu6050.o(i.DMP_Init) for DMP_Init
    drive_smallcar.o(i.SmallCar_Init) refers to drive_exti.o(i.MiniBalance_EXTI_Init) for MiniBalance_EXTI_Init
    drive_smallcar.o(i.SmallCar_Init) refers to drive_gpio.o(i.GPIO_Tracking_Init) for GPIO_Tracking_Init
    drive_smallcar.o(i.SmallCar_Left_Control) refers to my_pwm.o(i.LeftA_Moto_select) for LeftA_Moto_select
    drive_smallcar.o(i.SmallCar_Left_Control) refers to my_pwm.o(i.LeftA_PWM) for LeftA_PWM
    drive_smallcar.o(i.SmallCar_Left_Control) refers to drive_smallcar.o(.bss) for SmallCar
    drive_smallcar.o(i.SmallCar_Right_Control) refers to my_pwm.o(i.LeftB_Moto_select) for LeftB_Moto_select
    drive_smallcar.o(i.SmallCar_Right_Control) refers to my_pwm.o(i.LeftB_PWM) for LeftB_PWM
    drive_smallcar.o(i.SmallCar_Right_Control) refers to drive_smallcar.o(.bss) for SmallCar
    drive_gpio.o(i.GPIO_Key_Init) refers to stm32f10x_rcc.o(i.RCC_APB2PeriphClockCmd) for RCC_APB2PeriphClockCmd
    drive_gpio.o(i.GPIO_Key_Init) refers to stm32f10x_gpio.o(i.GPIO_Init) for GPIO_Init
    drive_gpio.o(i.GPIO_Relay_Init) refers to stm32f10x_rcc.o(i.RCC_APB2PeriphClockCmd) for RCC_APB2PeriphClockCmd
    drive_gpio.o(i.GPIO_Relay_Init) refers to stm32f10x_gpio.o(i.GPIO_Init) for GPIO_Init
    drive_gpio.o(i.GPIO_Relay_Init) refers to stm32f10x_gpio.o(i.GPIO_ResetBits) for GPIO_ResetBits
    drive_gpio.o(i.GPIO_Test_Init) refers to stm32f10x_rcc.o(i.RCC_APB2PeriphClockCmd) for RCC_APB2PeriphClockCmd
    drive_gpio.o(i.GPIO_Test_Init) refers to stm32f10x_gpio.o(i.GPIO_Init) for GPIO_Init
    drive_gpio.o(i.GPIO_Test_Init) refers to stm32f10x_gpio.o(i.GPIO_ResetBits) for GPIO_ResetBits
    drive_gpio.o(i.GPIO_Tracking_Init) refers to stm32f10x_rcc.o(i.RCC_APB2PeriphClockCmd) for RCC_APB2PeriphClockCmd
    drive_gpio.o(i.GPIO_Tracking_Init) refers to stm32f10x_gpio.o(i.GPIO_Init) for GPIO_Init
    drive_gpio.o(i.GPIO_Tracking_Init) refers to stm32f10x_gpio.o(i.GPIO_ResetBits) for GPIO_ResetBits
    drive_oled.o(i.FF_CLK) refers to stm32f10x_gpio.o(i.GPIO_WriteBit) for GPIO_WriteBit
    drive_oled.o(i.FF_CS) refers to stm32f10x_gpio.o(i.GPIO_WriteBit) for GPIO_WriteBit
    drive_oled.o(i.FF_Init) refers to stm32f10x_gpio.o(i.GPIO_Init) for GPIO_Init
    drive_oled.o(i.FF_Init) refers to drive_oled.o(i.FF_CS) for FF_CS
    drive_oled.o(i.FF_Init) refers to drive_oled.o(i.FF_CLK) for FF_CLK
    drive_oled.o(i.FF_SO) refers to stm32f10x_gpio.o(i.GPIO_WriteBit) for GPIO_WriteBit
    drive_oled.o(i.LcdDisChar) refers to drive_oled.o(i.OLED_SetPos) for OLED_SetPos
    drive_oled.o(i.LcdDisChar) refers to drive_oled.o(i.OLED_WrDat) for OLED_WrDat
    drive_oled.o(i.LcdDisplay_Chinese) refers to strlen.o(.text) for strlen
    drive_oled.o(i.LcdDisplay_Chinese) refers to drive_oled.o(i.LcdDisplay_HZ) for LcdDisplay_HZ
    drive_oled.o(i.LcdDisplay_HZ) refers to stm32f10x_gpio.o(i.GPIO_ResetBits) for GPIO_ResetBits
    drive_oled.o(i.LcdDisplay_HZ) refers to drive_oled.o(i.Read_FLASH) for Read_FLASH
    drive_oled.o(i.LcdDisplay_HZ) refers to drive_oled.o(i.LcdDisChar) for LcdDisChar
    drive_oled.o(i.LcdDisplay_HZ) refers to stm32f10x_gpio.o(i.GPIO_SetBits) for GPIO_SetBits
    drive_oled.o(i.LcdDisplay_char) refers to strlen.o(.text) for strlen
    drive_oled.o(i.LcdDisplay_char) refers to drive_oled.o(i.LcdDisplay_HZ) for LcdDisplay_HZ
    drive_oled.o(i.OLED_BMP) refers to stm32f10x_gpio.o(i.GPIO_ResetBits) for GPIO_ResetBits
    drive_oled.o(i.OLED_BMP) refers to drive_oled.o(i.OLED_SetPos) for OLED_SetPos
    drive_oled.o(i.OLED_BMP) refers to drive_oled.o(i.OLED_WrDat) for OLED_WrDat
    drive_oled.o(i.OLED_BMP) refers to stm32f10x_gpio.o(i.GPIO_SetBits) for GPIO_SetBits
    drive_oled.o(i.OLED_CLS) refers to drive_oled.o(i.OLED_Fill) for OLED_Fill
    drive_oled.o(i.OLED_Fill) refers to stm32f10x_gpio.o(i.GPIO_ResetBits) for GPIO_ResetBits
    drive_oled.o(i.OLED_Fill) refers to drive_oled.o(i.OLED_WrCmd) for OLED_WrCmd
    drive_oled.o(i.OLED_Fill) refers to drive_oled.o(i.OLED_WrDat) for OLED_WrDat
    drive_oled.o(i.OLED_Fill) refers to stm32f10x_gpio.o(i.GPIO_SetBits) for GPIO_SetBits
    drive_oled.o(i.OLED_Init) refers to stm32f10x_rcc.o(i.RCC_APB2PeriphClockCmd) for RCC_APB2PeriphClockCmd
    drive_oled.o(i.OLED_Init) refers to stm32f10x_gpio.o(i.GPIO_Init) for GPIO_Init
    drive_oled.o(i.OLED_Init) refers to stm32f10x_gpio.o(i.GPIO_SetBits) for GPIO_SetBits
    drive_oled.o(i.OLED_Init) refers to os_startfile.o(i.OSdelay_ms) for OSdelay_ms
    drive_oled.o(i.OLED_Init) refers to stm32f10x_gpio.o(i.GPIO_ResetBits) for GPIO_ResetBits
    drive_oled.o(i.OLED_Init) refers to drive_oled.o(i.OLED_WrCmd) for OLED_WrCmd
    drive_oled.o(i.OLED_Init) refers to drive_oled.o(i.OLED_Fill) for OLED_Fill
    drive_oled.o(i.OLED_Init) refers to drive_oled.o(i.OLED_SetPos) for OLED_SetPos
    drive_oled.o(i.OLED_Init) refers to drive_oled.o(i.FF_Init) for FF_Init
    drive_oled.o(i.OLED_SetPos) refers to drive_oled.o(i.OLED_WrCmd) for OLED_WrCmd
    drive_oled.o(i.OLED_WrCmd) refers to stm32f10x_gpio.o(i.GPIO_ResetBits) for GPIO_ResetBits
    drive_oled.o(i.OLED_WrCmd) refers to stm32f10x_gpio.o(i.GPIO_SetBits) for GPIO_SetBits
    drive_oled.o(i.OLED_WrDat) refers to stm32f10x_gpio.o(i.GPIO_SetBits) for GPIO_SetBits
    drive_oled.o(i.OLED_WrDat) refers to stm32f10x_gpio.o(i.GPIO_ResetBits) for GPIO_ResetBits
    drive_oled.o(i.Read_FLASH) refers to stm32f10x_gpio.o(i.GPIO_SetBits) for GPIO_SetBits
    drive_oled.o(i.Read_FLASH) refers to drive_oled.o(i.FF_CS) for FF_CS
    drive_oled.o(i.Read_FLASH) refers to drive_oled.o(i.Write_FF) for Write_FF
    drive_oled.o(i.Read_FLASH) refers to stm32f10x_gpio.o(i.GPIO_ResetBits) for GPIO_ResetBits
    drive_oled.o(i.Write_FF) refers to drive_oled.o(i.FF_CLK) for FF_CLK
    drive_oled.o(i.Write_FF) refers to os_startfile.o(i.OSdelay_us) for OSdelay_us
    drive_oled.o(i.Write_FF) refers to drive_oled.o(i.FF_SO) for FF_SO
    drive_oled.o(i.Write_FF) refers to stm32f10x_gpio.o(i.GPIO_ReadInputDataBit) for GPIO_ReadInputDataBit
    drive_timer.o(i.TIM2_Init) refers to stm32f10x_rcc.o(i.RCC_APB1PeriphClockCmd) for RCC_APB1PeriphClockCmd
    drive_timer.o(i.TIM2_Init) refers to stm32f10x_tim.o(i.TIM_TimeBaseInit) for TIM_TimeBaseInit
    drive_timer.o(i.TIM2_Init) refers to stm32f10x_tim.o(i.TIM_ITConfig) for TIM_ITConfig
    drive_timer.o(i.TIM2_Init) refers to misc.o(i.NVIC_Init) for NVIC_Init
    drive_timer.o(i.TIM2_Init) refers to stm32f10x_tim.o(i.TIM_Cmd) for TIM_Cmd
    drive_timer.o(i.TIM3_Init) refers to stm32f10x_rcc.o(i.RCC_APB1PeriphClockCmd) for RCC_APB1PeriphClockCmd
    drive_timer.o(i.TIM3_Init) refers to stm32f10x_tim.o(i.TIM_TimeBaseInit) for TIM_TimeBaseInit
    drive_timer.o(i.TIM3_Init) refers to stm32f10x_tim.o(i.TIM_ITConfig) for TIM_ITConfig
    drive_timer.o(i.TIM3_Init) refers to misc.o(i.NVIC_Init) for NVIC_Init
    drive_timer.o(i.TIM3_Init) refers to stm32f10x_tim.o(i.TIM_Cmd) for TIM_Cmd
    drive_timer.o(i.TIM4_Init) refers to stm32f10x_rcc.o(i.RCC_APB1PeriphClockCmd) for RCC_APB1PeriphClockCmd
    drive_timer.o(i.TIM4_Init) refers to stm32f10x_tim.o(i.TIM_TimeBaseInit) for TIM_TimeBaseInit
    drive_timer.o(i.TIM4_Init) refers to stm32f10x_tim.o(i.TIM_ITConfig) for TIM_ITConfig
    drive_timer.o(i.TIM4_Init) refers to misc.o(i.NVIC_Init) for NVIC_Init
    drive_timer.o(i.TIM4_Init) refers to stm32f10x_tim.o(i.TIM_Cmd) for TIM_Cmd
    drive_exti.o(i.MiniBalance_EXTI_Init) refers to stm32f10x_rcc.o(i.RCC_APB2PeriphClockCmd) for RCC_APB2PeriphClockCmd
    drive_exti.o(i.MiniBalance_EXTI_Init) refers to stm32f10x_gpio.o(i.GPIO_Init) for GPIO_Init
    drive_exti.o(i.MiniBalance_EXTI_Init) refers to stm32f10x_gpio.o(i.GPIO_EXTILineConfig) for GPIO_EXTILineConfig
    drive_exti.o(i.MiniBalance_EXTI_Init) refers to stm32f10x_exti.o(i.EXTI_Init) for EXTI_Init
    drive_exti.o(i.MiniBalance_EXTI_Init) refers to misc.o(i.NVIC_Init) for NVIC_Init
    drive_interrupt.o(i.DMA1_Channel1_IRQHandler) refers to stm32f10x_dma.o(i.DMA_ClearITPendingBit) for DMA_ClearITPendingBit
    drive_interrupt.o(i.DMA1_Channel1_IRQHandler) refers to drive_smallcar.o(.bss) for SmallCar
    drive_interrupt.o(i.DMA1_Channel1_IRQHandler) refers to adc.o(.bss) for AD_Value
    drive_interrupt.o(i.EXTI9_5_IRQHandler) refers to stm32f10x_exti.o(i.EXTI_GetITStatus) for EXTI_GetITStatus
    drive_interrupt.o(i.EXTI9_5_IRQHandler) refers to mpu6050.o(i.Get_Angle) for Get_Angle
    drive_interrupt.o(i.EXTI9_5_IRQHandler) refers to stm32f10x_exti.o(i.EXTI_ClearITPendingBit) for EXTI_ClearITPendingBit
    drive_interrupt.o(i.EXTI9_5_IRQHandler) refers to app_smallcar.o(.data) for Blance_GetData_Flag
    drive_interrupt.o(i.TIM2_IRQHandler) refers to stm32f10x_tim.o(i.TIM_ClearITPendingBit) for TIM_ClearITPendingBit
    drive_interrupt.o(i.TIM2_IRQHandler) refers to os_startfile.o(.data) for OS_Clock
    drive_interrupt.o(i.TIM3_IRQHandler) refers to stm32f10x_tim.o(i.TIM_ClearITPendingBit) for TIM_ClearITPendingBit
    drive_interrupt.o(i.TIM3_IRQHandler) refers to os_run.o(i.OSThread_4) for OSThread_4
    drive_interrupt.o(i.TIM4_IRQHandler) refers to stm32f10x_tim.o(i.TIM_ClearITPendingBit) for TIM_ClearITPendingBit
    drive_interrupt.o(i.TIM4_IRQHandler) refers to os_run.o(i.OSThread_6) for OSThread_6
    drive_dac.o(i.DAC1_Init) refers to stm32f10x_rcc.o(i.RCC_APB2PeriphClockCmd) for RCC_APB2PeriphClockCmd
    drive_dac.o(i.DAC1_Init) refers to stm32f10x_rcc.o(i.RCC_APB1PeriphClockCmd) for RCC_APB1PeriphClockCmd
    drive_dac.o(i.DAC1_Init) refers to stm32f10x_gpio.o(i.GPIO_Init) for GPIO_Init
    drive_dac.o(i.DAC1_Init) refers to stm32f10x_gpio.o(i.GPIO_SetBits) for GPIO_SetBits
    drive_dac.o(i.DAC1_Init) refers to stm32f10x_dac.o(i.DAC_Init) for DAC_Init
    drive_dac.o(i.DAC1_Init) refers to stm32f10x_dac.o(i.DAC_Cmd) for DAC_Cmd
    drive_dac.o(i.DAC1_Init) refers to stm32f10x_dac.o(i.DAC_SetChannel1Data) for DAC_SetChannel1Data
    drive_dac.o(i.DAC1_Set) refers to stm32f10x_dac.o(i.DAC_SetChannel1Data) for DAC_SetChannel1Data
    drive_mpu6050.o(i.DMP_Init) refers to drive_ioi2c.o(i.i2cRead) for i2cRead
    drive_mpu6050.o(i.DMP_Init) refers to inv_mpu.o(i.mpu_init) for mpu_init
    drive_mpu6050.o(i.DMP_Init) refers to inv_mpu.o(i.mpu_set_sensors) for mpu_set_sensors
    drive_mpu6050.o(i.DMP_Init) refers to inv_mpu.o(i.mpu_configure_fifo) for mpu_configure_fifo
    drive_mpu6050.o(i.DMP_Init) refers to inv_mpu.o(i.mpu_set_sample_rate) for mpu_set_sample_rate
    drive_mpu6050.o(i.DMP_Init) refers to inv_mpu_dmp_motion_driver.o(i.dmp_load_motion_driver_firmware) for dmp_load_motion_driver_firmware
    drive_mpu6050.o(i.DMP_Init) refers to drive_mpu6050.o(i.inv_orientation_matrix_to_scalar) for inv_orientation_matrix_to_scalar
    drive_mpu6050.o(i.DMP_Init) refers to inv_mpu_dmp_motion_driver.o(i.dmp_set_orientation) for dmp_set_orientation
    drive_mpu6050.o(i.DMP_Init) refers to inv_mpu_dmp_motion_driver.o(i.dmp_enable_feature) for dmp_enable_feature
    drive_mpu6050.o(i.DMP_Init) refers to inv_mpu_dmp_motion_driver.o(i.dmp_set_fifo_rate) for dmp_set_fifo_rate
    drive_mpu6050.o(i.DMP_Init) refers to drive_mpu6050.o(i.run_self_test) for run_self_test
    drive_mpu6050.o(i.DMP_Init) refers to inv_mpu.o(i.mpu_set_dmp_state) for mpu_set_dmp_state
    drive_mpu6050.o(i.DMP_Init) refers to drive_mpu6050.o(.data) for a
    drive_mpu6050.o(i.MPU6050_getDeviceID) refers to drive_ioi2c.o(i.IICreadBytes) for IICreadBytes
    drive_mpu6050.o(i.MPU6050_getDeviceID) refers to drive_mpu6050.o(.bss) for buffer
    drive_mpu6050.o(i.MPU6050_initialize) refers to drive_mpu6050.o(i.MPU6050_setClockSource) for MPU6050_setClockSource
    drive_mpu6050.o(i.MPU6050_initialize) refers to drive_mpu6050.o(i.MPU6050_setFullScaleGyroRange) for MPU6050_setFullScaleGyroRange
    drive_mpu6050.o(i.MPU6050_initialize) refers to drive_mpu6050.o(i.MPU6050_setFullScaleAccelRange) for MPU6050_setFullScaleAccelRange
    drive_mpu6050.o(i.MPU6050_initialize) refers to drive_mpu6050.o(i.MPU6050_setSleepEnabled) for MPU6050_setSleepEnabled
    drive_mpu6050.o(i.MPU6050_initialize) refers to drive_mpu6050.o(i.MPU6050_setI2CMasterModeEnabled) for MPU6050_setI2CMasterModeEnabled
    drive_mpu6050.o(i.MPU6050_initialize) refers to drive_mpu6050.o(i.MPU6050_setI2CBypassEnabled) for MPU6050_setI2CBypassEnabled
    drive_mpu6050.o(i.MPU6050_newValues) refers to drive_mpu6050.o(.bss) for MPU6050_FIFO
    drive_mpu6050.o(i.MPU6050_setClockSource) refers to drive_ioi2c.o(i.IICwriteBits) for IICwriteBits
    drive_mpu6050.o(i.MPU6050_setFullScaleAccelRange) refers to drive_ioi2c.o(i.IICwriteBits) for IICwriteBits
    drive_mpu6050.o(i.MPU6050_setFullScaleGyroRange) refers to drive_ioi2c.o(i.IICwriteBits) for IICwriteBits
    drive_mpu6050.o(i.MPU6050_setI2CBypassEnabled) refers to drive_ioi2c.o(i.IICwriteBit) for IICwriteBit
    drive_mpu6050.o(i.MPU6050_setI2CMasterModeEnabled) refers to drive_ioi2c.o(i.IICwriteBit) for IICwriteBit
    drive_mpu6050.o(i.MPU6050_setSleepEnabled) refers to drive_ioi2c.o(i.IICwriteBit) for IICwriteBit
    drive_mpu6050.o(i.MPU6050_testConnection) refers to drive_mpu6050.o(i.MPU6050_getDeviceID) for MPU6050_getDeviceID
    drive_mpu6050.o(i.Read_DMP) refers to inv_mpu_dmp_motion_driver.o(i.dmp_read_fifo) for dmp_read_fifo
    drive_mpu6050.o(i.Read_DMP) refers to fflti.o(.text) for __aeabi_i2f
    drive_mpu6050.o(i.Read_DMP) refers to fdiv.o(.text) for __aeabi_fdiv
    drive_mpu6050.o(i.Read_DMP) refers to fmul.o(.text) for __aeabi_fmul
    drive_mpu6050.o(i.Read_DMP) refers to fadd.o(.text) for __aeabi_fadd
    drive_mpu6050.o(i.Read_DMP) refers to f2d.o(.text) for __aeabi_f2d
    drive_mpu6050.o(i.Read_DMP) refers to asin.o(i.asin) for asin
    drive_mpu6050.o(i.Read_DMP) refers to dmul.o(.text) for __aeabi_dmul
    drive_mpu6050.o(i.Read_DMP) refers to d2f.o(.text) for __aeabi_d2f
    drive_mpu6050.o(i.Read_DMP) refers to atan2.o(i.atan2) for atan2
    drive_mpu6050.o(i.Read_DMP) refers to drive_mpu6050.o(.data) for sensors
    drive_mpu6050.o(i.Read_DMP) refers to mpu6050.o(.data) for Roll
    drive_mpu6050.o(i.Read_Temperature) refers to drive_ioi2c.o(i.I2C_ReadOneByte) for I2C_ReadOneByte
    drive_mpu6050.o(i.Read_Temperature) refers to fflti.o(.text) for __aeabi_i2f
    drive_mpu6050.o(i.Read_Temperature) refers to cfrcmple.o(.text) for __aeabi_cfrcmple
    drive_mpu6050.o(i.Read_Temperature) refers to fadd.o(.text) for __aeabi_fsub
    drive_mpu6050.o(i.Read_Temperature) refers to fdiv.o(.text) for __aeabi_fdiv
    drive_mpu6050.o(i.Read_Temperature) refers to f2d.o(.text) for __aeabi_f2d
    drive_mpu6050.o(i.Read_Temperature) refers to dadd.o(.text) for __aeabi_dadd
    drive_mpu6050.o(i.Read_Temperature) refers to dmul.o(.text) for __aeabi_dmul
    drive_mpu6050.o(i.Read_Temperature) refers to d2f.o(.text) for __aeabi_d2f
    drive_mpu6050.o(i.Read_Temperature) refers to ffixi.o(.text) for __aeabi_f2iz
    drive_mpu6050.o(i.inv_orientation_matrix_to_scalar) refers to drive_mpu6050.o(i.inv_row_2_scale) for inv_row_2_scale
    drive_mpu6050.o(i.run_self_test) refers to inv_mpu.o(i.mpu_run_self_test) for mpu_run_self_test
    drive_mpu6050.o(i.run_self_test) refers to inv_mpu.o(i.mpu_get_gyro_sens) for mpu_get_gyro_sens
    drive_mpu6050.o(i.run_self_test) refers to fflti.o(.text) for __aeabi_i2f
    drive_mpu6050.o(i.run_self_test) refers to fmul.o(.text) for __aeabi_fmul
    drive_mpu6050.o(i.run_self_test) refers to ffixi.o(.text) for __aeabi_f2iz
    drive_mpu6050.o(i.run_self_test) refers to inv_mpu_dmp_motion_driver.o(i.dmp_set_gyro_bias) for dmp_set_gyro_bias
    drive_mpu6050.o(i.run_self_test) refers to inv_mpu.o(i.mpu_get_accel_sens) for mpu_get_accel_sens
    drive_mpu6050.o(i.run_self_test) refers to inv_mpu_dmp_motion_driver.o(i.dmp_set_accel_bias) for dmp_set_accel_bias
    drive_ioi2c.o(i.I2C_ReadOneByte) refers to drive_ioi2c.o(i.IIC_Start) for IIC_Start
    drive_ioi2c.o(i.I2C_ReadOneByte) refers to drive_ioi2c.o(i.IIC_Send_Byte) for IIC_Send_Byte
    drive_ioi2c.o(i.I2C_ReadOneByte) refers to drive_ioi2c.o(i.IIC_Wait_Ack) for IIC_Wait_Ack
    drive_ioi2c.o(i.I2C_ReadOneByte) refers to drive_ioi2c.o(i.IIC_Read_Byte) for IIC_Read_Byte
    drive_ioi2c.o(i.I2C_ReadOneByte) refers to drive_ioi2c.o(i.IIC_Stop) for IIC_Stop
    drive_ioi2c.o(i.IIC_Ack) refers to os_startfile.o(i.OSdelay_us) for OSdelay_us
    drive_ioi2c.o(i.IIC_Init) refers to stm32f10x_rcc.o(i.RCC_APB2PeriphClockCmd) for RCC_APB2PeriphClockCmd
    drive_ioi2c.o(i.IIC_Init) refers to stm32f10x_gpio.o(i.GPIO_Init) for GPIO_Init
    drive_ioi2c.o(i.IIC_Init) refers to stm32f10x_gpio.o(i.GPIO_SetBits) for GPIO_SetBits
    drive_ioi2c.o(i.IIC_NAck) refers to os_startfile.o(i.OSdelay_us) for OSdelay_us
    drive_ioi2c.o(i.IIC_Read_Byte) refers to os_startfile.o(i.OSdelay_us) for OSdelay_us
    drive_ioi2c.o(i.IIC_Read_Byte) refers to drive_ioi2c.o(i.IIC_Ack) for IIC_Ack
    drive_ioi2c.o(i.IIC_Read_Byte) refers to drive_ioi2c.o(i.IIC_NAck) for IIC_NAck
    drive_ioi2c.o(i.IIC_Send_Byte) refers to os_startfile.o(i.OSdelay_us) for OSdelay_us
    drive_ioi2c.o(i.IIC_Start) refers to os_startfile.o(i.OSdelay_us) for OSdelay_us
    drive_ioi2c.o(i.IIC_Stop) refers to os_startfile.o(i.OSdelay_us) for OSdelay_us
    drive_ioi2c.o(i.IIC_Wait_Ack) refers to os_startfile.o(i.OSdelay_us) for OSdelay_us
    drive_ioi2c.o(i.IIC_Wait_Ack) refers to drive_ioi2c.o(i.IIC_Stop) for IIC_Stop
    drive_ioi2c.o(i.IICreadByte) refers to drive_ioi2c.o(i.I2C_ReadOneByte) for I2C_ReadOneByte
    drive_ioi2c.o(i.IICreadBytes) refers to drive_ioi2c.o(i.IIC_Start) for IIC_Start
    drive_ioi2c.o(i.IICreadBytes) refers to drive_ioi2c.o(i.IIC_Send_Byte) for IIC_Send_Byte
    drive_ioi2c.o(i.IICreadBytes) refers to drive_ioi2c.o(i.IIC_Wait_Ack) for IIC_Wait_Ack
    drive_ioi2c.o(i.IICreadBytes) refers to drive_ioi2c.o(i.IIC_Read_Byte) for IIC_Read_Byte
    drive_ioi2c.o(i.IICreadBytes) refers to drive_ioi2c.o(i.IIC_Stop) for IIC_Stop
    drive_ioi2c.o(i.IICwriteBit) refers to drive_ioi2c.o(i.IICreadByte) for IICreadByte
    drive_ioi2c.o(i.IICwriteBit) refers to drive_ioi2c.o(i.IICwriteByte) for IICwriteByte
    drive_ioi2c.o(i.IICwriteBits) refers to drive_ioi2c.o(i.IICreadByte) for IICreadByte
    drive_ioi2c.o(i.IICwriteBits) refers to drive_ioi2c.o(i.IICwriteByte) for IICwriteByte
    drive_ioi2c.o(i.IICwriteByte) refers to drive_ioi2c.o(i.IICwriteBytes) for IICwriteBytes
    drive_ioi2c.o(i.IICwriteBytes) refers to drive_ioi2c.o(i.IIC_Start) for IIC_Start
    drive_ioi2c.o(i.IICwriteBytes) refers to drive_ioi2c.o(i.IIC_Send_Byte) for IIC_Send_Byte
    drive_ioi2c.o(i.IICwriteBytes) refers to drive_ioi2c.o(i.IIC_Wait_Ack) for IIC_Wait_Ack
    drive_ioi2c.o(i.IICwriteBytes) refers to drive_ioi2c.o(i.IIC_Stop) for IIC_Stop
    drive_ioi2c.o(i.i2cRead) refers to drive_ioi2c.o(i.IIC_Start) for IIC_Start
    drive_ioi2c.o(i.i2cRead) refers to drive_ioi2c.o(i.IIC_Send_Byte) for IIC_Send_Byte
    drive_ioi2c.o(i.i2cRead) refers to drive_ioi2c.o(i.IIC_Wait_Ack) for IIC_Wait_Ack
    drive_ioi2c.o(i.i2cRead) refers to drive_ioi2c.o(i.IIC_Stop) for IIC_Stop
    drive_ioi2c.o(i.i2cRead) refers to drive_ioi2c.o(i.IIC_Read_Byte) for IIC_Read_Byte
    drive_ioi2c.o(i.i2cWrite) refers to drive_ioi2c.o(i.IIC_Start) for IIC_Start
    drive_ioi2c.o(i.i2cWrite) refers to drive_ioi2c.o(i.IIC_Send_Byte) for IIC_Send_Byte
    drive_ioi2c.o(i.i2cWrite) refers to drive_ioi2c.o(i.IIC_Wait_Ack) for IIC_Wait_Ack
    drive_ioi2c.o(i.i2cWrite) refers to drive_ioi2c.o(i.IIC_Stop) for IIC_Stop
    inv_mpu_dmp_motion_driver.o(i.decode_gesture) refers to inv_mpu_dmp_motion_driver.o(.bss) for dmp
    inv_mpu_dmp_motion_driver.o(i.dmp_enable_6x_lp_quat) refers to memseta.o(.text) for __aeabi_memset
    inv_mpu_dmp_motion_driver.o(i.dmp_enable_6x_lp_quat) refers to inv_mpu.o(i.mpu_write_mem) for mpu_write_mem
    inv_mpu_dmp_motion_driver.o(i.dmp_enable_6x_lp_quat) refers to inv_mpu.o(i.mpu_reset_fifo) for mpu_reset_fifo
    inv_mpu_dmp_motion_driver.o(i.dmp_enable_feature) refers to inv_mpu.o(i.mpu_write_mem) for mpu_write_mem
    inv_mpu_dmp_motion_driver.o(i.dmp_enable_feature) refers to inv_mpu_dmp_motion_driver.o(i.dmp_enable_gyro_cal) for dmp_enable_gyro_cal
    inv_mpu_dmp_motion_driver.o(i.dmp_enable_feature) refers to inv_mpu_dmp_motion_driver.o(i.dmp_set_tap_thresh) for dmp_set_tap_thresh
    inv_mpu_dmp_motion_driver.o(i.dmp_enable_feature) refers to inv_mpu_dmp_motion_driver.o(i.dmp_set_tap_axes) for dmp_set_tap_axes
    inv_mpu_dmp_motion_driver.o(i.dmp_enable_feature) refers to inv_mpu_dmp_motion_driver.o(i.dmp_set_tap_count) for dmp_set_tap_count
    inv_mpu_dmp_motion_driver.o(i.dmp_enable_feature) refers to inv_mpu_dmp_motion_driver.o(i.dmp_set_tap_time) for dmp_set_tap_time
    inv_mpu_dmp_motion_driver.o(i.dmp_enable_feature) refers to inv_mpu_dmp_motion_driver.o(i.dmp_set_tap_time_multi) for dmp_set_tap_time_multi
    inv_mpu_dmp_motion_driver.o(i.dmp_enable_feature) refers to inv_mpu_dmp_motion_driver.o(i.dmp_set_shake_reject_thresh) for dmp_set_shake_reject_thresh
    inv_mpu_dmp_motion_driver.o(i.dmp_enable_feature) refers to inv_mpu_dmp_motion_driver.o(i.dmp_set_shake_reject_time) for dmp_set_shake_reject_time
    inv_mpu_dmp_motion_driver.o(i.dmp_enable_feature) refers to inv_mpu_dmp_motion_driver.o(i.dmp_set_shake_reject_timeout) for dmp_set_shake_reject_timeout
    inv_mpu_dmp_motion_driver.o(i.dmp_enable_feature) refers to inv_mpu_dmp_motion_driver.o(i.dmp_enable_lp_quat) for dmp_enable_lp_quat
    inv_mpu_dmp_motion_driver.o(i.dmp_enable_feature) refers to inv_mpu_dmp_motion_driver.o(i.dmp_enable_6x_lp_quat) for dmp_enable_6x_lp_quat
    inv_mpu_dmp_motion_driver.o(i.dmp_enable_feature) refers to inv_mpu.o(i.mpu_reset_fifo) for mpu_reset_fifo
    inv_mpu_dmp_motion_driver.o(i.dmp_enable_feature) refers to inv_mpu_dmp_motion_driver.o(.bss) for dmp
    inv_mpu_dmp_motion_driver.o(i.dmp_enable_gyro_cal) refers to inv_mpu.o(i.mpu_write_mem) for mpu_write_mem
    inv_mpu_dmp_motion_driver.o(i.dmp_enable_lp_quat) refers to memseta.o(.text) for __aeabi_memset
    inv_mpu_dmp_motion_driver.o(i.dmp_enable_lp_quat) refers to inv_mpu.o(i.mpu_write_mem) for mpu_write_mem
    inv_mpu_dmp_motion_driver.o(i.dmp_enable_lp_quat) refers to inv_mpu.o(i.mpu_reset_fifo) for mpu_reset_fifo
    inv_mpu_dmp_motion_driver.o(i.dmp_get_enabled_features) refers to inv_mpu_dmp_motion_driver.o(.bss) for dmp
    inv_mpu_dmp_motion_driver.o(i.dmp_get_fifo_rate) refers to inv_mpu_dmp_motion_driver.o(.bss) for dmp
    inv_mpu_dmp_motion_driver.o(i.dmp_get_pedometer_step_count) refers to inv_mpu.o(i.mpu_read_mem) for mpu_read_mem
    inv_mpu_dmp_motion_driver.o(i.dmp_get_pedometer_walk_time) refers to inv_mpu.o(i.mpu_read_mem) for mpu_read_mem
    inv_mpu_dmp_motion_driver.o(i.dmp_load_motion_driver_firmware) refers to inv_mpu.o(i.mpu_load_firmware) for mpu_load_firmware
    inv_mpu_dmp_motion_driver.o(i.dmp_load_motion_driver_firmware) refers to inv_mpu_dmp_motion_driver.o(.constdata) for dmp_memory
    inv_mpu_dmp_motion_driver.o(i.dmp_read_fifo) refers to inv_mpu.o(i.mpu_read_fifo_stream) for mpu_read_fifo_stream
    inv_mpu_dmp_motion_driver.o(i.dmp_read_fifo) refers to inv_mpu.o(i.mpu_reset_fifo) for mpu_reset_fifo
    inv_mpu_dmp_motion_driver.o(i.dmp_read_fifo) refers to inv_mpu_dmp_motion_driver.o(i.decode_gesture) for decode_gesture
    inv_mpu_dmp_motion_driver.o(i.dmp_read_fifo) refers to inv_mpu.o(i.myget_ms) for myget_ms
    inv_mpu_dmp_motion_driver.o(i.dmp_read_fifo) refers to inv_mpu_dmp_motion_driver.o(.bss) for dmp
    inv_mpu_dmp_motion_driver.o(i.dmp_register_android_orient_cb) refers to inv_mpu_dmp_motion_driver.o(.bss) for dmp
    inv_mpu_dmp_motion_driver.o(i.dmp_register_tap_cb) refers to inv_mpu_dmp_motion_driver.o(.bss) for dmp
    inv_mpu_dmp_motion_driver.o(i.dmp_set_accel_bias) refers to inv_mpu.o(i.mpu_get_accel_sens) for mpu_get_accel_sens
    inv_mpu_dmp_motion_driver.o(i.dmp_set_accel_bias) refers to inv_mpu.o(i.mpu_write_mem) for mpu_write_mem
    inv_mpu_dmp_motion_driver.o(i.dmp_set_accel_bias) refers to inv_mpu_dmp_motion_driver.o(.bss) for dmp
    inv_mpu_dmp_motion_driver.o(i.dmp_set_fifo_rate) refers to inv_mpu.o(i.mpu_write_mem) for mpu_write_mem
    inv_mpu_dmp_motion_driver.o(i.dmp_set_fifo_rate) refers to inv_mpu_dmp_motion_driver.o(.bss) for dmp
    inv_mpu_dmp_motion_driver.o(i.dmp_set_gyro_bias) refers to inv_mpu.o(i.mpu_write_mem) for mpu_write_mem
    inv_mpu_dmp_motion_driver.o(i.dmp_set_gyro_bias) refers to inv_mpu_dmp_motion_driver.o(.bss) for dmp
    inv_mpu_dmp_motion_driver.o(i.dmp_set_interrupt_mode) refers to inv_mpu.o(i.mpu_write_mem) for mpu_write_mem
    inv_mpu_dmp_motion_driver.o(i.dmp_set_orientation) refers to inv_mpu.o(i.mpu_write_mem) for mpu_write_mem
    inv_mpu_dmp_motion_driver.o(i.dmp_set_orientation) refers to inv_mpu_dmp_motion_driver.o(.bss) for dmp
    inv_mpu_dmp_motion_driver.o(i.dmp_set_pedometer_step_count) refers to inv_mpu.o(i.mpu_write_mem) for mpu_write_mem
    inv_mpu_dmp_motion_driver.o(i.dmp_set_pedometer_walk_time) refers to inv_mpu.o(i.mpu_write_mem) for mpu_write_mem
    inv_mpu_dmp_motion_driver.o(i.dmp_set_shake_reject_thresh) refers to inv_mpu.o(i.mpu_write_mem) for mpu_write_mem
    inv_mpu_dmp_motion_driver.o(i.dmp_set_shake_reject_time) refers to inv_mpu.o(i.mpu_write_mem) for mpu_write_mem
    inv_mpu_dmp_motion_driver.o(i.dmp_set_shake_reject_timeout) refers to inv_mpu.o(i.mpu_write_mem) for mpu_write_mem
    inv_mpu_dmp_motion_driver.o(i.dmp_set_tap_axes) refers to inv_mpu.o(i.mpu_write_mem) for mpu_write_mem
    inv_mpu_dmp_motion_driver.o(i.dmp_set_tap_count) refers to inv_mpu.o(i.mpu_write_mem) for mpu_write_mem
    inv_mpu_dmp_motion_driver.o(i.dmp_set_tap_thresh) refers to ffltui.o(.text) for __aeabi_ui2f
    inv_mpu_dmp_motion_driver.o(i.dmp_set_tap_thresh) refers to fdiv.o(.text) for __aeabi_fdiv
    inv_mpu_dmp_motion_driver.o(i.dmp_set_tap_thresh) refers to inv_mpu.o(i.mpu_get_accel_fsr) for mpu_get_accel_fsr
    inv_mpu_dmp_motion_driver.o(i.dmp_set_tap_thresh) refers to fmul.o(.text) for __aeabi_fmul
    inv_mpu_dmp_motion_driver.o(i.dmp_set_tap_thresh) refers to ffixui.o(.text) for __aeabi_f2uiz
    inv_mpu_dmp_motion_driver.o(i.dmp_set_tap_thresh) refers to inv_mpu.o(i.mpu_write_mem) for mpu_write_mem
    inv_mpu_dmp_motion_driver.o(i.dmp_set_tap_time) refers to inv_mpu.o(i.mpu_write_mem) for mpu_write_mem
    inv_mpu_dmp_motion_driver.o(i.dmp_set_tap_time_multi) refers to inv_mpu.o(i.mpu_write_mem) for mpu_write_mem
    inv_mpu.o(i.accel_self_test) refers to inv_mpu.o(i.get_accel_prod_shift) for get_accel_prod_shift
    inv_mpu.o(i.accel_self_test) refers to fflti.o(.text) for __aeabi_i2f
    inv_mpu.o(i.accel_self_test) refers to fdiv.o(.text) for __aeabi_fdiv
    inv_mpu.o(i.accel_self_test) refers to cfcmple.o(.text) for __aeabi_cfcmpeq
    inv_mpu.o(i.accel_self_test) refers to fadd.o(.text) for __aeabi_fsub
    inv_mpu.o(i.accel_self_test) refers to cfrcmple.o(.text) for __aeabi_cfrcmple
    inv_mpu.o(i.accel_self_test) refers to inv_mpu.o(.constdata) for test
    inv_mpu.o(i.get_accel_prod_shift) refers to drive_ioi2c.o(i.i2cRead) for i2cRead
    inv_mpu.o(i.get_accel_prod_shift) refers to fmul.o(.text) for __aeabi_fmul
    inv_mpu.o(i.get_accel_prod_shift) refers to inv_mpu.o(.data) for st
    inv_mpu.o(i.get_st_biases) refers to drive_ioi2c.o(i.i2cWrite) for i2cWrite
    inv_mpu.o(i.get_st_biases) refers to os_startfile.o(i.OSdelay_ms) for OSdelay_ms
    inv_mpu.o(i.get_st_biases) refers to drive_ioi2c.o(i.i2cRead) for i2cRead
    inv_mpu.o(i.get_st_biases) refers to ldiv.o(.text) for __aeabi_ldivmod
    inv_mpu.o(i.get_st_biases) refers to inv_mpu.o(.data) for st
    inv_mpu.o(i.get_st_biases) refers to inv_mpu.o(.constdata) for test
    inv_mpu.o(i.gyro_self_test) refers to drive_ioi2c.o(i.i2cRead) for i2cRead
    inv_mpu.o(i.gyro_self_test) refers to fflti.o(.text) for __aeabi_i2f
    inv_mpu.o(i.gyro_self_test) refers to fdiv.o(.text) for __aeabi_fdiv
    inv_mpu.o(i.gyro_self_test) refers to ffltui.o(.text) for __aeabi_ui2f
    inv_mpu.o(i.gyro_self_test) refers to fmul.o(.text) for __aeabi_fmul
    inv_mpu.o(i.gyro_self_test) refers to fadd.o(.text) for __aeabi_fsub
    inv_mpu.o(i.gyro_self_test) refers to cfrcmple.o(.text) for __aeabi_cfrcmple
    inv_mpu.o(i.gyro_self_test) refers to cfcmple.o(.text) for __aeabi_cfcmple
    inv_mpu.o(i.gyro_self_test) refers to inv_mpu.o(.data) for st
    inv_mpu.o(i.gyro_self_test) refers to inv_mpu.o(.constdata) for test
    inv_mpu.o(i.mpu_configure_fifo) refers to inv_mpu.o(i.set_int_enable) for set_int_enable
    inv_mpu.o(i.mpu_configure_fifo) refers to inv_mpu.o(i.mpu_reset_fifo) for mpu_reset_fifo
    inv_mpu.o(i.mpu_configure_fifo) refers to inv_mpu.o(.data) for st
    inv_mpu.o(i.mpu_get_accel_fsr) refers to inv_mpu.o(.data) for st
    inv_mpu.o(i.mpu_get_accel_reg) refers to drive_ioi2c.o(i.i2cRead) for i2cRead
    inv_mpu.o(i.mpu_get_accel_reg) refers to inv_mpu.o(i.myget_ms) for myget_ms
    inv_mpu.o(i.mpu_get_accel_reg) refers to inv_mpu.o(.data) for st
    inv_mpu.o(i.mpu_get_accel_sens) refers to inv_mpu.o(.data) for st
    inv_mpu.o(i.mpu_get_dmp_state) refers to inv_mpu.o(.data) for st
    inv_mpu.o(i.mpu_get_fifo_config) refers to inv_mpu.o(.data) for st
    inv_mpu.o(i.mpu_get_gyro_fsr) refers to inv_mpu.o(.data) for st
    inv_mpu.o(i.mpu_get_gyro_reg) refers to drive_ioi2c.o(i.i2cRead) for i2cRead
    inv_mpu.o(i.mpu_get_gyro_reg) refers to inv_mpu.o(i.myget_ms) for myget_ms
    inv_mpu.o(i.mpu_get_gyro_reg) refers to inv_mpu.o(.data) for st
    inv_mpu.o(i.mpu_get_gyro_sens) refers to inv_mpu.o(.data) for st
    inv_mpu.o(i.mpu_get_int_status) refers to drive_ioi2c.o(i.i2cRead) for i2cRead
    inv_mpu.o(i.mpu_get_int_status) refers to inv_mpu.o(.data) for st
    inv_mpu.o(i.mpu_get_lpf) refers to inv_mpu.o(.data) for st
    inv_mpu.o(i.mpu_get_power_state) refers to inv_mpu.o(.data) for st
    inv_mpu.o(i.mpu_get_sample_rate) refers to inv_mpu.o(.data) for st
    inv_mpu.o(i.mpu_get_temperature) refers to drive_ioi2c.o(i.i2cRead) for i2cRead
    inv_mpu.o(i.mpu_get_temperature) refers to inv_mpu.o(i.myget_ms) for myget_ms
    inv_mpu.o(i.mpu_get_temperature) refers to ffltui.o(.text) for __aeabi_ui2f
    inv_mpu.o(i.mpu_get_temperature) refers to fflti.o(.text) for __aeabi_i2f
    inv_mpu.o(i.mpu_get_temperature) refers to fadd.o(.text) for __aeabi_fsub
    inv_mpu.o(i.mpu_get_temperature) refers to fdiv.o(.text) for __aeabi_fdiv
    inv_mpu.o(i.mpu_get_temperature) refers to fmul.o(.text) for __aeabi_fmul
    inv_mpu.o(i.mpu_get_temperature) refers to ffixi.o(.text) for __aeabi_f2iz
    inv_mpu.o(i.mpu_get_temperature) refers to inv_mpu.o(.data) for st
    inv_mpu.o(i.mpu_init) refers to drive_ioi2c.o(i.i2cWrite) for i2cWrite
    inv_mpu.o(i.mpu_init) refers to os_startfile.o(i.OSdelay_ms) for OSdelay_ms
    inv_mpu.o(i.mpu_init) refers to drive_ioi2c.o(i.i2cRead) for i2cRead
    inv_mpu.o(i.mpu_init) refers to inv_mpu.o(i.mpu_set_gyro_fsr) for mpu_set_gyro_fsr
    inv_mpu.o(i.mpu_init) refers to inv_mpu.o(i.mpu_set_accel_fsr) for mpu_set_accel_fsr
    inv_mpu.o(i.mpu_init) refers to inv_mpu.o(i.mpu_set_lpf) for mpu_set_lpf
    inv_mpu.o(i.mpu_init) refers to inv_mpu.o(i.mpu_set_sample_rate) for mpu_set_sample_rate
    inv_mpu.o(i.mpu_init) refers to inv_mpu.o(i.mpu_configure_fifo) for mpu_configure_fifo
    inv_mpu.o(i.mpu_init) refers to inv_mpu.o(i.mpu_set_bypass) for mpu_set_bypass
    inv_mpu.o(i.mpu_init) refers to inv_mpu.o(i.mpu_set_sensors) for mpu_set_sensors
    inv_mpu.o(i.mpu_init) refers to inv_mpu.o(.data) for st
    inv_mpu.o(i.mpu_load_firmware) refers to inv_mpu.o(i.mpu_write_mem) for mpu_write_mem
    inv_mpu.o(i.mpu_load_firmware) refers to inv_mpu.o(i.mpu_read_mem) for mpu_read_mem
    inv_mpu.o(i.mpu_load_firmware) refers to memcmp.o(.text) for memcmp
    inv_mpu.o(i.mpu_load_firmware) refers to drive_ioi2c.o(i.i2cWrite) for i2cWrite
    inv_mpu.o(i.mpu_load_firmware) refers to inv_mpu.o(.data) for st
    inv_mpu.o(i.mpu_lp_accel_mode) refers to inv_mpu.o(i.mpu_set_int_latched) for mpu_set_int_latched
    inv_mpu.o(i.mpu_lp_accel_mode) refers to drive_ioi2c.o(i.i2cWrite) for i2cWrite
    inv_mpu.o(i.mpu_lp_accel_mode) refers to inv_mpu.o(i.mpu_set_lpf) for mpu_set_lpf
    inv_mpu.o(i.mpu_lp_accel_mode) refers to inv_mpu.o(i.mpu_configure_fifo) for mpu_configure_fifo
    inv_mpu.o(i.mpu_lp_accel_mode) refers to inv_mpu.o(.data) for st
    inv_mpu.o(i.mpu_lp_motion_interrupt) refers to inv_mpu.o(i.mpu_set_dmp_state) for mpu_set_dmp_state
    inv_mpu.o(i.mpu_lp_motion_interrupt) refers to inv_mpu.o(i.mpu_get_gyro_fsr) for mpu_get_gyro_fsr
    inv_mpu.o(i.mpu_lp_motion_interrupt) refers to inv_mpu.o(i.mpu_get_accel_fsr) for mpu_get_accel_fsr
    inv_mpu.o(i.mpu_lp_motion_interrupt) refers to inv_mpu.o(i.mpu_get_lpf) for mpu_get_lpf
    inv_mpu.o(i.mpu_lp_motion_interrupt) refers to inv_mpu.o(i.mpu_get_sample_rate) for mpu_get_sample_rate
    inv_mpu.o(i.mpu_lp_motion_interrupt) refers to inv_mpu.o(i.mpu_get_fifo_config) for mpu_get_fifo_config
    inv_mpu.o(i.mpu_lp_motion_interrupt) refers to inv_mpu.o(i.set_int_enable) for set_int_enable
    inv_mpu.o(i.mpu_lp_motion_interrupt) refers to inv_mpu.o(i.mpu_lp_accel_mode) for mpu_lp_accel_mode
    inv_mpu.o(i.mpu_lp_motion_interrupt) refers to drive_ioi2c.o(i.i2cWrite) for i2cWrite
    inv_mpu.o(i.mpu_lp_motion_interrupt) refers to os_startfile.o(i.OSdelay_ms) for OSdelay_ms
    inv_mpu.o(i.mpu_lp_motion_interrupt) refers to inv_mpu.o(i.mpu_set_sensors) for mpu_set_sensors
    inv_mpu.o(i.mpu_lp_motion_interrupt) refers to inv_mpu.o(i.mpu_set_gyro_fsr) for mpu_set_gyro_fsr
    inv_mpu.o(i.mpu_lp_motion_interrupt) refers to inv_mpu.o(i.mpu_set_accel_fsr) for mpu_set_accel_fsr
    inv_mpu.o(i.mpu_lp_motion_interrupt) refers to inv_mpu.o(i.mpu_set_lpf) for mpu_set_lpf
    inv_mpu.o(i.mpu_lp_motion_interrupt) refers to inv_mpu.o(i.mpu_set_sample_rate) for mpu_set_sample_rate
    inv_mpu.o(i.mpu_lp_motion_interrupt) refers to inv_mpu.o(i.mpu_configure_fifo) for mpu_configure_fifo
    inv_mpu.o(i.mpu_lp_motion_interrupt) refers to inv_mpu.o(.data) for st
    inv_mpu.o(i.mpu_read_fifo) refers to drive_ioi2c.o(i.i2cRead) for i2cRead
    inv_mpu.o(i.mpu_read_fifo) refers to inv_mpu.o(i.mpu_reset_fifo) for mpu_reset_fifo
    inv_mpu.o(i.mpu_read_fifo) refers to inv_mpu.o(i.myget_ms) for myget_ms
    inv_mpu.o(i.mpu_read_fifo) refers to inv_mpu.o(.data) for st
    inv_mpu.o(i.mpu_read_fifo_stream) refers to drive_ioi2c.o(i.i2cRead) for i2cRead
    inv_mpu.o(i.mpu_read_fifo_stream) refers to inv_mpu.o(i.mpu_reset_fifo) for mpu_reset_fifo
    inv_mpu.o(i.mpu_read_fifo_stream) refers to inv_mpu.o(.data) for st
    inv_mpu.o(i.mpu_read_mem) refers to drive_ioi2c.o(i.i2cWrite) for i2cWrite
    inv_mpu.o(i.mpu_read_mem) refers to drive_ioi2c.o(i.i2cRead) for i2cRead
    inv_mpu.o(i.mpu_read_mem) refers to inv_mpu.o(.data) for st
    inv_mpu.o(i.mpu_read_reg) refers to drive_ioi2c.o(i.i2cRead) for i2cRead
    inv_mpu.o(i.mpu_read_reg) refers to inv_mpu.o(.data) for st
    inv_mpu.o(i.mpu_reg_dump) refers to drive_ioi2c.o(i.i2cRead) for i2cRead
    inv_mpu.o(i.mpu_reg_dump) refers to inv_mpu.o(.data) for st
    inv_mpu.o(i.mpu_reset_fifo) refers to drive_ioi2c.o(i.i2cWrite) for i2cWrite
    inv_mpu.o(i.mpu_reset_fifo) refers to inv_mpu.o(.data) for st
    inv_mpu.o(i.mpu_run_self_test) refers to inv_mpu.o(i.mpu_set_dmp_state) for mpu_set_dmp_state
    inv_mpu.o(i.mpu_run_self_test) refers to inv_mpu.o(i.mpu_get_gyro_fsr) for mpu_get_gyro_fsr
    inv_mpu.o(i.mpu_run_self_test) refers to inv_mpu.o(i.mpu_get_accel_fsr) for mpu_get_accel_fsr
    inv_mpu.o(i.mpu_run_self_test) refers to inv_mpu.o(i.mpu_get_lpf) for mpu_get_lpf
    inv_mpu.o(i.mpu_run_self_test) refers to inv_mpu.o(i.mpu_get_sample_rate) for mpu_get_sample_rate
    inv_mpu.o(i.mpu_run_self_test) refers to inv_mpu.o(i.mpu_get_fifo_config) for mpu_get_fifo_config
    inv_mpu.o(i.mpu_run_self_test) refers to inv_mpu.o(i.get_st_biases) for get_st_biases
    inv_mpu.o(i.mpu_run_self_test) refers to inv_mpu.o(i.accel_self_test) for accel_self_test
    inv_mpu.o(i.mpu_run_self_test) refers to inv_mpu.o(i.gyro_self_test) for gyro_self_test
    inv_mpu.o(i.mpu_run_self_test) refers to inv_mpu.o(i.mpu_set_gyro_fsr) for mpu_set_gyro_fsr
    inv_mpu.o(i.mpu_run_self_test) refers to inv_mpu.o(i.mpu_set_accel_fsr) for mpu_set_accel_fsr
    inv_mpu.o(i.mpu_run_self_test) refers to inv_mpu.o(i.mpu_set_lpf) for mpu_set_lpf
    inv_mpu.o(i.mpu_run_self_test) refers to inv_mpu.o(i.mpu_set_sample_rate) for mpu_set_sample_rate
    inv_mpu.o(i.mpu_run_self_test) refers to inv_mpu.o(i.mpu_set_sensors) for mpu_set_sensors
    inv_mpu.o(i.mpu_run_self_test) refers to inv_mpu.o(i.mpu_configure_fifo) for mpu_configure_fifo
    inv_mpu.o(i.mpu_run_self_test) refers to inv_mpu.o(.data) for st
    inv_mpu.o(i.mpu_set_accel_bias) refers to drive_ioi2c.o(i.i2cRead) for i2cRead
    inv_mpu.o(i.mpu_set_accel_bias) refers to drive_ioi2c.o(i.i2cWrite) for i2cWrite
    inv_mpu.o(i.mpu_set_accel_bias) refers to inv_mpu.o(.data) for st
    inv_mpu.o(i.mpu_set_accel_fsr) refers to drive_ioi2c.o(i.i2cWrite) for i2cWrite
    inv_mpu.o(i.mpu_set_accel_fsr) refers to inv_mpu.o(.data) for st
    inv_mpu.o(i.mpu_set_bypass) refers to drive_ioi2c.o(i.i2cRead) for i2cRead
    inv_mpu.o(i.mpu_set_bypass) refers to drive_ioi2c.o(i.i2cWrite) for i2cWrite
    inv_mpu.o(i.mpu_set_bypass) refers to os_startfile.o(i.OSdelay_ms) for OSdelay_ms
    inv_mpu.o(i.mpu_set_bypass) refers to inv_mpu.o(.data) for st
    inv_mpu.o(i.mpu_set_dmp_state) refers to inv_mpu.o(i.set_int_enable) for set_int_enable
    inv_mpu.o(i.mpu_set_dmp_state) refers to inv_mpu.o(i.mpu_set_bypass) for mpu_set_bypass
    inv_mpu.o(i.mpu_set_dmp_state) refers to inv_mpu.o(i.mpu_set_sample_rate) for mpu_set_sample_rate
    inv_mpu.o(i.mpu_set_dmp_state) refers to drive_ioi2c.o(i.i2cWrite) for i2cWrite
    inv_mpu.o(i.mpu_set_dmp_state) refers to inv_mpu.o(i.mpu_reset_fifo) for mpu_reset_fifo
    inv_mpu.o(i.mpu_set_dmp_state) refers to inv_mpu.o(.data) for st
    inv_mpu.o(i.mpu_set_gyro_fsr) refers to drive_ioi2c.o(i.i2cWrite) for i2cWrite
    inv_mpu.o(i.mpu_set_gyro_fsr) refers to inv_mpu.o(.data) for st
    inv_mpu.o(i.mpu_set_int_latched) refers to drive_ioi2c.o(i.i2cWrite) for i2cWrite
    inv_mpu.o(i.mpu_set_int_latched) refers to inv_mpu.o(.data) for st
    inv_mpu.o(i.mpu_set_int_level) refers to inv_mpu.o(.data) for st
    inv_mpu.o(i.mpu_set_lpf) refers to drive_ioi2c.o(i.i2cWrite) for i2cWrite
    inv_mpu.o(i.mpu_set_lpf) refers to inv_mpu.o(.data) for st
    inv_mpu.o(i.mpu_set_sample_rate) refers to inv_mpu.o(i.mpu_lp_accel_mode) for mpu_lp_accel_mode
    inv_mpu.o(i.mpu_set_sample_rate) refers to drive_ioi2c.o(i.i2cWrite) for i2cWrite
    inv_mpu.o(i.mpu_set_sample_rate) refers to inv_mpu.o(i.mpu_set_lpf) for mpu_set_lpf
    inv_mpu.o(i.mpu_set_sample_rate) refers to inv_mpu.o(.data) for st
    inv_mpu.o(i.mpu_set_sensors) refers to drive_ioi2c.o(i.i2cWrite) for i2cWrite
    inv_mpu.o(i.mpu_set_sensors) refers to inv_mpu.o(i.mpu_set_int_latched) for mpu_set_int_latched
    inv_mpu.o(i.mpu_set_sensors) refers to os_startfile.o(i.OSdelay_ms) for OSdelay_ms
    inv_mpu.o(i.mpu_set_sensors) refers to inv_mpu.o(.data) for st
    inv_mpu.o(i.mpu_write_mem) refers to drive_ioi2c.o(i.i2cWrite) for i2cWrite
    inv_mpu.o(i.mpu_write_mem) refers to inv_mpu.o(.data) for st
    inv_mpu.o(i.set_int_enable) refers to drive_ioi2c.o(i.i2cWrite) for i2cWrite
    inv_mpu.o(i.set_int_enable) refers to inv_mpu.o(.data) for st
    inv_mpu.o(.data) refers to inv_mpu.o(.constdata) for reg
    drive_usart.o(i.USART2_IRQHandler) refers to stm32f10x_usart.o(i.USART_GetITStatus) for USART_GetITStatus
    drive_usart.o(i.USART2_IRQHandler) refers to stm32f10x_usart.o(i.USART_ReceiveData) for USART_ReceiveData
    drive_usart.o(i.USART2_IRQHandler) refers to printfa.o(i.__0printf) for __2printf
    drive_usart.o(i.USART2_IRQHandler) refers to atof.o(i.atof) for atof
    drive_usart.o(i.USART2_IRQHandler) refers to d2f.o(.text) for __aeabi_d2f
    drive_usart.o(i.USART2_IRQHandler) refers to f2d.o(.text) for __aeabi_f2d
    drive_usart.o(i.USART2_IRQHandler) refers to drive_usart.o(.data) for Step
    drive_usart.o(i.USART2_IRQHandler) refers to drive_usart.o(.bss) for NumBuff
    drive_usart.o(i.USART2_IRQHandler) refers to drive_windcar_control.o(.data) for _kP
    drive_usart.o(i.uart_init) refers to stm32f10x_rcc.o(i.RCC_APB2PeriphClockCmd) for RCC_APB2PeriphClockCmd
    drive_usart.o(i.uart_init) refers to stm32f10x_rcc.o(i.RCC_APB1PeriphClockCmd) for RCC_APB1PeriphClockCmd
    drive_usart.o(i.uart_init) refers to stm32f10x_gpio.o(i.GPIO_Init) for GPIO_Init
    drive_usart.o(i.uart_init) refers to misc.o(i.NVIC_Init) for NVIC_Init
    drive_usart.o(i.uart_init) refers to stm32f10x_usart.o(i.USART_Init) for USART_Init
    drive_usart.o(i.uart_init) refers to stm32f10x_usart.o(i.USART_ITConfig) for USART_ITConfig
    drive_usart.o(i.uart_init) refers to stm32f10x_usart.o(i.USART_Cmd) for USART_Cmd
    adc.o(i.Adc_Init) refers to stm32f10x_rcc.o(i.RCC_APB2PeriphClockCmd) for RCC_APB2PeriphClockCmd
    adc.o(i.Adc_Init) refers to stm32f10x_rcc.o(i.RCC_ADCCLKConfig) for RCC_ADCCLKConfig
    adc.o(i.Adc_Init) refers to stm32f10x_gpio.o(i.GPIO_Init) for GPIO_Init
    adc.o(i.Adc_Init) refers to stm32f10x_adc.o(i.ADC_DeInit) for ADC_DeInit
    adc.o(i.Adc_Init) refers to stm32f10x_adc.o(i.ADC_Init) for ADC_Init
    adc.o(i.Adc_Init) refers to stm32f10x_adc.o(i.ADC_RegularChannelConfig) for ADC_RegularChannelConfig
    adc.o(i.Adc_Init) refers to stm32f10x_adc.o(i.ADC_SoftwareStartConvCmd) for ADC_SoftwareStartConvCmd
    adc.o(i.Adc_Init) refers to stm32f10x_adc.o(i.ADC_DMACmd) for ADC_DMACmd
    adc.o(i.Adc_Init) refers to stm32f10x_adc.o(i.ADC_Cmd) for ADC_Cmd
    adc.o(i.Adc_Init) refers to stm32f10x_adc.o(i.ADC_ResetCalibration) for ADC_ResetCalibration
    adc.o(i.Adc_Init) refers to stm32f10x_adc.o(i.ADC_GetResetCalibrationStatus) for ADC_GetResetCalibrationStatus
    adc.o(i.Adc_Init) refers to stm32f10x_adc.o(i.ADC_StartCalibration) for ADC_StartCalibration
    adc.o(i.Adc_Init) refers to stm32f10x_adc.o(i.ADC_GetCalibrationStatus) for ADC_GetCalibrationStatus
    adc.o(i.DMA_Configuration) refers to stm32f10x_rcc.o(i.RCC_AHBPeriphClockCmd) for RCC_AHBPeriphClockCmd
    adc.o(i.DMA_Configuration) refers to stm32f10x_dma.o(i.DMA_DeInit) for DMA_DeInit
    adc.o(i.DMA_Configuration) refers to stm32f10x_dma.o(i.DMA_Init) for DMA_Init
    adc.o(i.DMA_Configuration) refers to misc.o(i.NVIC_Init) for NVIC_Init
    adc.o(i.DMA_Configuration) refers to stm32f10x_dma.o(i.DMA_ITConfig) for DMA_ITConfig
    adc.o(i.DMA_Configuration) refers to stm32f10x_dma.o(i.DMA_Cmd) for DMA_Cmd
    adc.o(i.DMA_Configuration) refers to adc.o(.bss) for AD_Value
    adc.o(i.Get_Adc2) refers to stm32f10x_adc.o(i.ADC_RegularChannelConfig) for ADC_RegularChannelConfig
    adc.o(i.Get_Adc2) refers to stm32f10x_adc.o(i.ADC_SoftwareStartConvCmd) for ADC_SoftwareStartConvCmd
    adc.o(i.Get_Adc2) refers to stm32f10x_adc.o(i.ADC_GetFlagStatus) for ADC_GetFlagStatus
    adc.o(i.Get_Adc2) refers to stm32f10x_adc.o(i.ADC_GetConversionValue) for ADC_GetConversionValue
    adc.o(i.Get_Adc2_Average) refers to adc.o(i.Get_Adc2) for Get_Adc2
    adc.o(i.Get_Adc2_Average) refers to os_startfile.o(i.OSdelay_ms) for OSdelay_ms
    adc.o(i.InitAdc_Init) refers to stm32f10x_rcc.o(i.RCC_APB2PeriphClockCmd) for RCC_APB2PeriphClockCmd
    adc.o(i.InitAdc_Init) refers to stm32f10x_rcc.o(i.RCC_ADCCLKConfig) for RCC_ADCCLKConfig
    adc.o(i.InitAdc_Init) refers to stm32f10x_gpio.o(i.GPIO_Init) for GPIO_Init
    adc.o(i.InitAdc_Init) refers to stm32f10x_adc.o(i.ADC_DeInit) for ADC_DeInit
    adc.o(i.InitAdc_Init) refers to stm32f10x_adc.o(i.ADC_Init) for ADC_Init
    adc.o(i.InitAdc_Init) refers to stm32f10x_adc.o(i.ADC_Cmd) for ADC_Cmd
    adc.o(i.InitAdc_Init) refers to stm32f10x_adc.o(i.ADC_ResetCalibration) for ADC_ResetCalibration
    adc.o(i.InitAdc_Init) refers to stm32f10x_adc.o(i.ADC_GetResetCalibrationStatus) for ADC_GetResetCalibrationStatus
    adc.o(i.InitAdc_Init) refers to stm32f10x_adc.o(i.ADC_StartCalibration) for ADC_StartCalibration
    adc.o(i.InitAdc_Init) refers to stm32f10x_adc.o(i.ADC_GetCalibrationStatus) for ADC_GetCalibrationStatus
    my_pwm.o(i.AMoto_Inti_select) refers to stm32f10x_rcc.o(i.RCC_APB2PeriphClockCmd) for RCC_APB2PeriphClockCmd
    my_pwm.o(i.AMoto_Inti_select) refers to stm32f10x_gpio.o(i.GPIO_Init) for GPIO_Init
    my_pwm.o(i.AMoto_Inti_select) refers to stm32f10x_gpio.o(i.GPIO_ResetBits) for GPIO_ResetBits
    my_pwm.o(i.AMoto_Inti_select) refers to stm32f10x_gpio.o(i.GPIO_SetBits) for GPIO_SetBits
    my_pwm.o(i.BMoto_Inti_select) refers to stm32f10x_rcc.o(i.RCC_APB2PeriphClockCmd) for RCC_APB2PeriphClockCmd
    my_pwm.o(i.BMoto_Inti_select) refers to stm32f10x_gpio.o(i.GPIO_Init) for GPIO_Init
    my_pwm.o(i.BMoto_Inti_select) refers to stm32f10x_gpio.o(i.GPIO_ResetBits) for GPIO_ResetBits
    my_pwm.o(i.BMoto_Inti_select) refers to stm32f10x_gpio.o(i.GPIO_SetBits) for GPIO_SetBits
    my_pwm.o(i.LeftA_Moto_select) refers to stm32f10x_gpio.o(i.GPIO_ResetBits) for GPIO_ResetBits
    my_pwm.o(i.LeftA_Moto_select) refers to stm32f10x_gpio.o(i.GPIO_SetBits) for GPIO_SetBits
    my_pwm.o(i.LeftA_PWM) refers to stm32f10x_tim.o(i.TIM_SetCompare1) for TIM_SetCompare1
    my_pwm.o(i.LeftB_Moto_select) refers to stm32f10x_gpio.o(i.GPIO_ResetBits) for GPIO_ResetBits
    my_pwm.o(i.LeftB_Moto_select) refers to stm32f10x_gpio.o(i.GPIO_SetBits) for GPIO_SetBits
    my_pwm.o(i.LeftB_PWM) refers to stm32f10x_tim.o(i.TIM_SetCompare1) for TIM_SetCompare1
    my_pwm.o(i.RighA_Moto_select) refers to stm32f10x_gpio.o(i.GPIO_ResetBits) for GPIO_ResetBits
    my_pwm.o(i.RighA_Moto_select) refers to stm32f10x_gpio.o(i.GPIO_SetBits) for GPIO_SetBits
    my_pwm.o(i.RighA_PWM) refers to stm32f10x_tim.o(i.TIM_SetCompare2) for TIM_SetCompare2
    my_pwm.o(i.RighB_Moto_select) refers to stm32f10x_gpio.o(i.GPIO_ResetBits) for GPIO_ResetBits
    my_pwm.o(i.RighB_Moto_select) refers to stm32f10x_gpio.o(i.GPIO_SetBits) for GPIO_SetBits
    my_pwm.o(i.RighB_PWM) refers to stm32f10x_tim.o(i.TIM_SetCompare2) for TIM_SetCompare2
    my_pwm.o(i.TIM1_PWM_Init) refers to stm32f10x_rcc.o(i.RCC_APB2PeriphClockCmd) for RCC_APB2PeriphClockCmd
    my_pwm.o(i.TIM1_PWM_Init) refers to stm32f10x_gpio.o(i.GPIO_Init) for GPIO_Init
    my_pwm.o(i.TIM1_PWM_Init) refers to stm32f10x_tim.o(i.TIM_TimeBaseInit) for TIM_TimeBaseInit
    my_pwm.o(i.TIM1_PWM_Init) refers to stm32f10x_tim.o(i.TIM_OC1Init) for TIM_OC1Init
    my_pwm.o(i.TIM1_PWM_Init) refers to stm32f10x_tim.o(i.TIM_OC1PreloadConfig) for TIM_OC1PreloadConfig
    my_pwm.o(i.TIM1_PWM_Init) refers to stm32f10x_tim.o(i.TIM_CtrlPWMOutputs) for TIM_CtrlPWMOutputs
    my_pwm.o(i.TIM1_PWM_Init) refers to stm32f10x_tim.o(i.TIM_OC2Init) for TIM_OC2Init
    my_pwm.o(i.TIM1_PWM_Init) refers to stm32f10x_tim.o(i.TIM_OC2PreloadConfig) for TIM_OC2PreloadConfig
    my_pwm.o(i.TIM1_PWM_Init) refers to stm32f10x_tim.o(i.TIM_ARRPreloadConfig) for TIM_ARRPreloadConfig
    my_pwm.o(i.TIM1_PWM_Init) refers to stm32f10x_tim.o(i.TIM_Cmd) for TIM_Cmd
    my_pwm.o(i.TIM3_PWM_Init) refers to stm32f10x_rcc.o(i.RCC_APB2PeriphClockCmd) for RCC_APB2PeriphClockCmd
    my_pwm.o(i.TIM3_PWM_Init) refers to stm32f10x_gpio.o(i.GPIO_Init) for GPIO_Init
    my_pwm.o(i.TIM3_PWM_Init) refers to stm32f10x_rcc.o(i.RCC_APB1PeriphClockCmd) for RCC_APB1PeriphClockCmd
    my_pwm.o(i.TIM3_PWM_Init) refers to stm32f10x_tim.o(i.TIM_TimeBaseInit) for TIM_TimeBaseInit
    my_pwm.o(i.TIM3_PWM_Init) refers to stm32f10x_tim.o(i.TIM_OC1Init) for TIM_OC1Init
    my_pwm.o(i.TIM3_PWM_Init) refers to stm32f10x_tim.o(i.TIM_OC1PreloadConfig) for TIM_OC1PreloadConfig
    my_pwm.o(i.TIM3_PWM_Init) refers to stm32f10x_tim.o(i.TIM_OC2Init) for TIM_OC2Init
    my_pwm.o(i.TIM3_PWM_Init) refers to stm32f10x_tim.o(i.TIM_OC2PreloadConfig) for TIM_OC2PreloadConfig
    my_pwm.o(i.TIM3_PWM_Init) refers to stm32f10x_tim.o(i.TIM_ARRPreloadConfig) for TIM_ARRPreloadConfig
    my_pwm.o(i.TIM3_PWM_Init) refers to stm32f10x_tim.o(i.TIM_Cmd) for TIM_Cmd
    my_tim.o(i.TIM6_Int_Init) refers to stm32f10x_rcc.o(i.RCC_APB1PeriphClockCmd) for RCC_APB1PeriphClockCmd
    my_tim.o(i.TIM6_Int_Init) refers to stm32f10x_tim.o(i.TIM_TimeBaseInit) for TIM_TimeBaseInit
    my_tim.o(i.TIM6_Int_Init) refers to stm32f10x_tim.o(i.TIM_ITConfig) for TIM_ITConfig
    my_tim.o(i.TIM6_Int_Init) refers to stm32f10x_tim.o(i.TIM_Cmd) for TIM_Cmd
    my_tim.o(i.TIM6_Int_Init) refers to misc.o(i.NVIC_Init) for NVIC_Init
    my_tim.o(i.TIM7_IRQHandler) refers to stm32f10x_tim.o(i.TIM_GetITStatus) for TIM_GetITStatus
    my_tim.o(i.TIM7_IRQHandler) refers to stm32f10x_tim.o(i.TIM_ClearITPendingBit) for TIM_ClearITPendingBit
    my_tim.o(i.TIM7_Int_Init) refers to stm32f10x_rcc.o(i.RCC_APB1PeriphClockCmd) for RCC_APB1PeriphClockCmd
    my_tim.o(i.TIM7_Int_Init) refers to stm32f10x_tim.o(i.TIM_TimeBaseInit) for TIM_TimeBaseInit
    my_tim.o(i.TIM7_Int_Init) refers to stm32f10x_tim.o(i.TIM_ITConfig) for TIM_ITConfig
    my_tim.o(i.TIM7_Int_Init) refers to stm32f10x_tim.o(i.TIM_Cmd) for TIM_Cmd
    my_tim.o(i.TIM7_Int_Init) refers to misc.o(i.NVIC_Init) for NVIC_Init
    my_tim.o(i.TIM8_Configuration) refers to stm32f10x_tim.o(i.TIM_DeInit) for TIM_DeInit
    my_tim.o(i.TIM8_Configuration) refers to stm32f10x_rcc.o(i.RCC_APB2PeriphClockCmd) for RCC_APB2PeriphClockCmd
    my_tim.o(i.TIM8_Configuration) refers to stm32f10x_tim.o(i.TIM_TimeBaseInit) for TIM_TimeBaseInit
    my_tim.o(i.TIM8_Configuration) refers to stm32f10x_tim.o(i.TIM_ClearFlag) for TIM_ClearFlag
    my_tim.o(i.TIM8_Configuration) refers to misc.o(i.NVIC_Init) for NVIC_Init
    my_tim.o(i.TIM8_Configuration) refers to stm32f10x_tim.o(i.TIM_ITConfig) for TIM_ITConfig
    my_tim.o(i.TimeDelayMs) refers to my_tim.o(.data) for TimeDelay
    pid.o(i.PID_increa) refers to fadd.o(.text) for __aeabi_fsub
    pid.o(i.PID_increa) refers to cfcmple.o(.text) for __aeabi_cfcmple
    pid.o(i.PID_increa) refers to fmul.o(.text) for __aeabi_fmul
    mpu6050.o(i.Get_Angle) refers to drive_mpu6050.o(i.Read_DMP) for Read_DMP
    mpu6050.o(i.Get_Angle) refers to fflti.o(.text) for __aeabi_i2f
    mpu6050.o(i.Get_Angle) refers to drive_ioi2c.o(i.I2C_ReadOneByte) for I2C_ReadOneByte
    mpu6050.o(i.Get_Angle) refers to cfrcmple.o(.text) for __aeabi_cfrcmple
    mpu6050.o(i.Get_Angle) refers to fadd.o(.text) for __aeabi_fsub
    mpu6050.o(i.Get_Angle) refers to f2d.o(.text) for __aeabi_f2d
    mpu6050.o(i.Get_Angle) refers to atan2.o(i.atan2) for atan2
    mpu6050.o(i.Get_Angle) refers to dmul.o(.text) for __aeabi_dmul
    mpu6050.o(i.Get_Angle) refers to ddiv.o(.text) for __aeabi_ddiv
    mpu6050.o(i.Get_Angle) refers to d2f.o(.text) for __aeabi_d2f
    mpu6050.o(i.Get_Angle) refers to filter.o(i.Kalman_Filter) for Kalman_Filter
    mpu6050.o(i.Get_Angle) refers to filter.o(i.Yijielvbo) for Yijielvbo
    mpu6050.o(i.Get_Angle) refers to mpu6050.o(.data) for Roll
    mpu6050.o(i.Get_Angle) refers to drive_mpu6050.o(.data) for gyro
    mpu6050.o(i.Get_Angle) refers to filter.o(.data) for angle
    filter.o(i.Kalman_Filter) refers to fadd.o(.text) for __aeabi_fsub
    filter.o(i.Kalman_Filter) refers to fmul.o(.text) for __aeabi_fmul
    filter.o(i.Kalman_Filter) refers to ffltui.o(.text) for __aeabi_ui2f
    filter.o(i.Kalman_Filter) refers to fdiv.o(.text) for __aeabi_fdiv
    filter.o(i.Kalman_Filter) refers to filter.o(.data) for Q_bias
    filter.o(i.Kalman_Filter) refers to filter.o(.bss) for Pdot
    filter.o(i.Yijielvbo) refers to f2d.o(.text) for __aeabi_f2d
    filter.o(i.Yijielvbo) refers to dmul.o(.text) for __aeabi_dmul
    filter.o(i.Yijielvbo) refers to dadd.o(.text) for __aeabi_dadd
    filter.o(i.Yijielvbo) refers to fadd.o(.text) for __aeabi_fsub
    filter.o(i.Yijielvbo) refers to fmul.o(.text) for __aeabi_fmul
    filter.o(i.Yijielvbo) refers to d2f.o(.text) for __aeabi_d2f
    filter.o(i.Yijielvbo) refers to filter.o(.data) for angle
    startup_stm32f10x_hd.o(RESET) refers to startup_stm32f10x_hd.o(STACK) for __initial_sp
    startup_stm32f10x_hd.o(RESET) refers to startup_stm32f10x_hd.o(.text) for Reset_Handler
    startup_stm32f10x_hd.o(RESET) refers to drive_interrupt.o(i.DMA1_Channel1_IRQHandler) for DMA1_Channel1_IRQHandler
    startup_stm32f10x_hd.o(RESET) refers to drive_interrupt.o(i.EXTI9_5_IRQHandler) for EXTI9_5_IRQHandler
    startup_stm32f10x_hd.o(RESET) refers to drive_interrupt.o(i.TIM2_IRQHandler) for TIM2_IRQHandler
    startup_stm32f10x_hd.o(RESET) refers to drive_interrupt.o(i.TIM3_IRQHandler) for TIM3_IRQHandler
    startup_stm32f10x_hd.o(RESET) refers to drive_interrupt.o(i.TIM4_IRQHandler) for TIM4_IRQHandler
    startup_stm32f10x_hd.o(RESET) refers to drive_usart.o(i.USART2_IRQHandler) for USART2_IRQHandler
    startup_stm32f10x_hd.o(RESET) refers to my_tim.o(i.TIM7_IRQHandler) for TIM7_IRQHandler
    startup_stm32f10x_hd.o(.text) refers to system_stm32f10x.o(i.SystemInit) for SystemInit
    startup_stm32f10x_hd.o(.text) refers to entry.o(.ARM.Collect$$$$00000000) for __main
    system_stm32f10x.o(i.SetSysClock) refers to system_stm32f10x.o(i.SetSysClockTo72) for SetSysClockTo72
    system_stm32f10x.o(i.SystemCoreClockUpdate) refers to system_stm32f10x.o(.data) for SystemCoreClock
    system_stm32f10x.o(i.SystemInit) refers to system_stm32f10x.o(i.SetSysClock) for SetSysClock
    stm32f10x_rcc.o(i.RCC_GetClocksFreq) refers to stm32f10x_rcc.o(.data) for APBAHBPrescTable
    stm32f10x_rcc.o(i.RCC_WaitForHSEStartUp) refers to stm32f10x_rcc.o(i.RCC_GetFlagStatus) for RCC_GetFlagStatus
    stm32f10x_adc.o(i.ADC_DeInit) refers to stm32f10x_rcc.o(i.RCC_APB2PeriphResetCmd) for RCC_APB2PeriphResetCmd
    stm32f10x_gpio.o(i.GPIO_AFIODeInit) refers to stm32f10x_rcc.o(i.RCC_APB2PeriphResetCmd) for RCC_APB2PeriphResetCmd
    stm32f10x_gpio.o(i.GPIO_DeInit) refers to stm32f10x_rcc.o(i.RCC_APB2PeriphResetCmd) for RCC_APB2PeriphResetCmd
    stm32f10x_tim.o(i.TIM_DeInit) refers to stm32f10x_rcc.o(i.RCC_APB2PeriphResetCmd) for RCC_APB2PeriphResetCmd
    stm32f10x_tim.o(i.TIM_DeInit) refers to stm32f10x_rcc.o(i.RCC_APB1PeriphResetCmd) for RCC_APB1PeriphResetCmd
    stm32f10x_tim.o(i.TIM_ETRClockMode1Config) refers to stm32f10x_tim.o(i.TIM_ETRConfig) for TIM_ETRConfig
    stm32f10x_tim.o(i.TIM_ETRClockMode2Config) refers to stm32f10x_tim.o(i.TIM_ETRConfig) for TIM_ETRConfig
    stm32f10x_tim.o(i.TIM_ICInit) refers to stm32f10x_tim.o(i.TI1_Config) for TI1_Config
    stm32f10x_tim.o(i.TIM_ICInit) refers to stm32f10x_tim.o(i.TIM_SetIC1Prescaler) for TIM_SetIC1Prescaler
    stm32f10x_tim.o(i.TIM_ICInit) refers to stm32f10x_tim.o(i.TI2_Config) for TI2_Config
    stm32f10x_tim.o(i.TIM_ICInit) refers to stm32f10x_tim.o(i.TIM_SetIC2Prescaler) for TIM_SetIC2Prescaler
    stm32f10x_tim.o(i.TIM_ICInit) refers to stm32f10x_tim.o(i.TI3_Config) for TI3_Config
    stm32f10x_tim.o(i.TIM_ICInit) refers to stm32f10x_tim.o(i.TIM_SetIC3Prescaler) for TIM_SetIC3Prescaler
    stm32f10x_tim.o(i.TIM_ICInit) refers to stm32f10x_tim.o(i.TI4_Config) for TI4_Config
    stm32f10x_tim.o(i.TIM_ICInit) refers to stm32f10x_tim.o(i.TIM_SetIC4Prescaler) for TIM_SetIC4Prescaler
    stm32f10x_tim.o(i.TIM_ITRxExternalClockConfig) refers to stm32f10x_tim.o(i.TIM_SelectInputTrigger) for TIM_SelectInputTrigger
    stm32f10x_tim.o(i.TIM_PWMIConfig) refers to stm32f10x_tim.o(i.TI1_Config) for TI1_Config
    stm32f10x_tim.o(i.TIM_PWMIConfig) refers to stm32f10x_tim.o(i.TIM_SetIC1Prescaler) for TIM_SetIC1Prescaler
    stm32f10x_tim.o(i.TIM_PWMIConfig) refers to stm32f10x_tim.o(i.TI2_Config) for TI2_Config
    stm32f10x_tim.o(i.TIM_PWMIConfig) refers to stm32f10x_tim.o(i.TIM_SetIC2Prescaler) for TIM_SetIC2Prescaler
    stm32f10x_tim.o(i.TIM_TIxExternalClockConfig) refers to stm32f10x_tim.o(i.TI2_Config) for TI2_Config
    stm32f10x_tim.o(i.TIM_TIxExternalClockConfig) refers to stm32f10x_tim.o(i.TI1_Config) for TI1_Config
    stm32f10x_tim.o(i.TIM_TIxExternalClockConfig) refers to stm32f10x_tim.o(i.TIM_SelectInputTrigger) for TIM_SelectInputTrigger
    stm32f10x_dac.o(i.DAC_DeInit) refers to stm32f10x_rcc.o(i.RCC_APB1PeriphResetCmd) for RCC_APB1PeriphResetCmd
    stm32f10x_usart.o(i.USART_DeInit) refers to stm32f10x_rcc.o(i.RCC_APB2PeriphResetCmd) for RCC_APB2PeriphResetCmd
    stm32f10x_usart.o(i.USART_DeInit) refers to stm32f10x_rcc.o(i.RCC_APB1PeriphResetCmd) for RCC_APB1PeriphResetCmd
    stm32f10x_usart.o(i.USART_Init) refers to stm32f10x_rcc.o(i.RCC_GetClocksFreq) for RCC_GetClocksFreq
    asin.o(i.__softfp_asin) refers (Special) to iusefp.o(.text) for __I$use$fp
    asin.o(i.__softfp_asin) refers to asin.o(i.asin) for asin
    asin.o(i.asin) refers (Special) to iusefp.o(.text) for __I$use$fp
    asin.o(i.asin) refers to dunder.o(i.__mathlib_dbl_infnan) for __mathlib_dbl_infnan
    asin.o(i.asin) refers to dmul.o(.text) for __aeabi_dmul
    asin.o(i.asin) refers to dadd.o(.text) for __aeabi_dadd
    asin.o(i.asin) refers to errno.o(i.__set_errno) for __set_errno
    asin.o(i.asin) refers to dunder.o(i.__mathlib_dbl_invalid) for __mathlib_dbl_invalid
    asin.o(i.asin) refers to fpclassify.o(i.__ARM_fpclassify) for __ARM_fpclassify
    asin.o(i.asin) refers to dunder.o(i.__mathlib_dbl_underflow) for __mathlib_dbl_underflow
    asin.o(i.asin) refers to poly.o(i.__kernel_poly) for __kernel_poly
    asin.o(i.asin) refers to ddiv.o(.text) for __aeabi_ddiv
    asin.o(i.asin) refers to dscalb.o(.text) for __ARM_scalbn
    asin.o(i.asin) refers to sqrt.o(i.sqrt) for sqrt
    asin.o(i.asin) refers to asin.o(.constdata) for .constdata
    asin.o(.constdata) refers (Special) to iusefp.o(.text) for __I$use$fp
    asin_x.o(i.____softfp_asin$lsc) refers (Special) to iusefp.o(.text) for __I$use$fp
    asin_x.o(i.____softfp_asin$lsc) refers to asin_x.o(i.__asin$lsc) for __asin$lsc
    asin_x.o(i.__asin$lsc) refers (Special) to iusefp.o(.text) for __I$use$fp
    asin_x.o(i.__asin$lsc) refers to dunder.o(i.__mathlib_dbl_infnan) for __mathlib_dbl_infnan
    asin_x.o(i.__asin$lsc) refers to dmul.o(.text) for __aeabi_dmul
    asin_x.o(i.__asin$lsc) refers to dadd.o(.text) for __aeabi_dadd
    asin_x.o(i.__asin$lsc) refers to errno.o(i.__set_errno) for __set_errno
    asin_x.o(i.__asin$lsc) refers to poly.o(i.__kernel_poly) for __kernel_poly
    asin_x.o(i.__asin$lsc) refers to ddiv.o(.text) for __aeabi_ddiv
    asin_x.o(i.__asin$lsc) refers to dscalb.o(.text) for __ARM_scalbn
    asin_x.o(i.__asin$lsc) refers to sqrt.o(i.sqrt) for sqrt
    asin_x.o(i.__asin$lsc) refers to asin_x.o(.constdata) for .constdata
    asin_x.o(.constdata) refers (Special) to iusefp.o(.text) for __I$use$fp
    atan2.o(i.__softfp_atan2) refers (Special) to iusefp.o(.text) for __I$use$fp
    atan2.o(i.__softfp_atan2) refers to atan2.o(i.atan2) for atan2
    atan2.o(i.atan2) refers (Special) to iusefp.o(.text) for __I$use$fp
    atan2.o(i.atan2) refers to dunder.o(i.__mathlib_dbl_infnan2) for __mathlib_dbl_infnan2
    atan2.o(i.atan2) refers to atan.o(i.atan) for atan
    atan2.o(i.atan2) refers to ddiv.o(.text) for __aeabi_ddiv
    atan2.o(i.atan2) refers to dadd.o(.text) for __aeabi_dsub
    atan2.o(i.atan2) refers to qnan.o(.constdata) for __mathlib_zero
    atan2_x.o(i.____softfp_atan2$lsc) refers (Special) to iusefp.o(.text) for __I$use$fp
    atan2_x.o(i.____softfp_atan2$lsc) refers to atan2_x.o(i.__atan2$lsc) for __atan2$lsc
    atan2_x.o(i.__atan2$lsc) refers (Special) to iusefp.o(.text) for __I$use$fp
    atan2_x.o(i.__atan2$lsc) refers to dunder.o(i.__mathlib_dbl_infnan2) for __mathlib_dbl_infnan2
    atan2_x.o(i.__atan2$lsc) refers to atan.o(i.atan) for atan
    atan2_x.o(i.__atan2$lsc) refers to errno.o(i.__set_errno) for __set_errno
    atan2_x.o(i.__atan2$lsc) refers to ddiv.o(.text) for __aeabi_ddiv
    atan2_x.o(i.__atan2$lsc) refers to dadd.o(.text) for __aeabi_dsub
    atan2_x.o(i.__atan2$lsc) refers to qnan.o(.constdata) for __mathlib_zero
    atof.o(i.__softfp_atof) refers (Special) to iusefp.o(.text) for __I$use$fp
    atof.o(i.__softfp_atof) refers to errno.o(i.__read_errno) for __read_errno
    atof.o(i.__softfp_atof) refers to strtod.o(.text) for __strtod_int
    atof.o(i.__softfp_atof) refers to errno.o(i.__set_errno) for __set_errno
    atof.o(i.atof) refers (Special) to iusefp.o(.text) for __I$use$fp
    atof.o(i.atof) refers to errno.o(i.__read_errno) for __read_errno
    atof.o(i.atof) refers to strtod.o(.text) for __strtod_int
    atof.o(i.atof) refers to errno.o(i.__set_errno) for __set_errno
    cos.o(i.__softfp_cos) refers (Special) to iusefp.o(.text) for __I$use$fp
    cos.o(i.__softfp_cos) refers to cos.o(i.cos) for cos
    cos.o(i.cos) refers (Special) to iusefp.o(.text) for __I$use$fp
    cos.o(i.cos) refers to errno.o(i.__set_errno) for __set_errno
    cos.o(i.cos) refers to dunder.o(i.__mathlib_dbl_invalid) for __mathlib_dbl_invalid
    cos.o(i.cos) refers to dunder.o(i.__mathlib_dbl_infnan) for __mathlib_dbl_infnan
    cos.o(i.cos) refers to rred.o(i.__ieee754_rem_pio2) for __ieee754_rem_pio2
    cos.o(i.cos) refers to sin_i.o(i.__kernel_sin) for __kernel_sin
    cos.o(i.cos) refers to cos_i.o(i.__kernel_cos) for __kernel_cos
    cos_x.o(i.____softfp_cos$lsc) refers (Special) to iusefp.o(.text) for __I$use$fp
    cos_x.o(i.____softfp_cos$lsc) refers to cos_x.o(i.__cos$lsc) for __cos$lsc
    cos_x.o(i.__cos$lsc) refers (Special) to iusefp.o(.text) for __I$use$fp
    cos_x.o(i.__cos$lsc) refers to errno.o(i.__set_errno) for __set_errno
    cos_x.o(i.__cos$lsc) refers to dunder.o(i.__mathlib_dbl_infnan) for __mathlib_dbl_infnan
    cos_x.o(i.__cos$lsc) refers to rred.o(i.__ieee754_rem_pio2) for __ieee754_rem_pio2
    cos_x.o(i.__cos$lsc) refers to sin_i.o(i.__kernel_sin) for __kernel_sin
    cos_x.o(i.__cos$lsc) refers to cos_i.o(i.__kernel_cos) for __kernel_cos
    pow.o(i.__softfp_pow) refers (Special) to iusefp.o(.text) for __I$use$fp
    pow.o(i.__softfp_pow) refers to pow.o(i.pow) for pow
    pow.o(i.pow) refers (Special) to iusefp.o(.text) for __I$use$fp
    pow.o(i.pow) refers to dunder.o(i.__mathlib_dbl_infnan2) for __mathlib_dbl_infnan2
    pow.o(i.pow) refers to errno.o(i.__set_errno) for __set_errno
    pow.o(i.pow) refers to dunder.o(i.__mathlib_dbl_divzero) for __mathlib_dbl_divzero
    pow.o(i.pow) refers to dunder.o(i.__mathlib_dbl_overflow) for __mathlib_dbl_overflow
    pow.o(i.pow) refers to ddiv.o(.text) for __aeabi_ddiv
    pow.o(i.pow) refers to sqrt.o(i.sqrt) for sqrt
    pow.o(i.pow) refers to dmul.o(.text) for __aeabi_dmul
    pow.o(i.pow) refers to dunder.o(i.__mathlib_dbl_invalid) for __mathlib_dbl_invalid
    pow.o(i.pow) refers to dunder.o(i.__mathlib_dbl_underflow) for __mathlib_dbl_underflow
    pow.o(i.pow) refers to dadd.o(.text) for __aeabi_dsub
    pow.o(i.pow) refers to dscalb.o(.text) for __ARM_scalbn
    pow.o(i.pow) refers to qnan.o(.constdata) for __mathlib_zero
    pow.o(i.pow) refers to poly.o(i.__kernel_poly) for __kernel_poly
    pow.o(i.pow) refers to dflti.o(.text) for __aeabi_i2d
    pow.o(i.pow) refers to cdrcmple.o(.text) for __aeabi_cdrcmple
    pow.o(i.pow) refers to pow.o(.constdata) for .constdata
    pow.o(i.pow) refers to fpclassify.o(i.__ARM_fpclassify) for __ARM_fpclassify
    pow.o(.constdata) refers (Special) to iusefp.o(.text) for __I$use$fp
    pow_x.o(i.____softfp_pow$lsc) refers (Special) to iusefp.o(.text) for __I$use$fp
    pow_x.o(i.____softfp_pow$lsc) refers to pow_x.o(i.__pow$lsc) for __pow$lsc
    pow_x.o(i.__pow$lsc) refers (Special) to iusefp.o(.text) for __I$use$fp
    pow_x.o(i.__pow$lsc) refers to dunder.o(i.__mathlib_dbl_infnan2) for __mathlib_dbl_infnan2
    pow_x.o(i.__pow$lsc) refers to errno.o(i.__set_errno) for __set_errno
    pow_x.o(i.__pow$lsc) refers to ddiv.o(.text) for __aeabi_ddiv
    pow_x.o(i.__pow$lsc) refers to sqrt.o(i.sqrt) for sqrt
    pow_x.o(i.__pow$lsc) refers to dmul.o(.text) for __aeabi_dmul
    pow_x.o(i.__pow$lsc) refers to dflti.o(.text) for __aeabi_i2d
    pow_x.o(i.__pow$lsc) refers to dadd.o(.text) for __aeabi_dsub
    pow_x.o(i.__pow$lsc) refers to dscalb.o(.text) for __ARM_scalbn
    pow_x.o(i.__pow$lsc) refers to qnan.o(.constdata) for __mathlib_zero
    pow_x.o(i.__pow$lsc) refers to pow_x.o(.constdata) for .constdata
    pow_x.o(i.__pow$lsc) refers to poly.o(i.__kernel_poly) for __kernel_poly
    pow_x.o(i.__pow$lsc) refers to cdrcmple.o(.text) for __aeabi_cdrcmple
    pow_x.o(.constdata) refers (Special) to iusefp.o(.text) for __I$use$fp
    entry.o(.ARM.Collect$$$$00000000) refers (Special) to entry10a.o(.ARM.Collect$$$$0000000D) for __rt_final_cpp
    entry.o(.ARM.Collect$$$$00000000) refers (Special) to entry11a.o(.ARM.Collect$$$$0000000F) for __rt_final_exit
    entry.o(.ARM.Collect$$$$00000000) refers (Special) to entry7b.o(.ARM.Collect$$$$00000008) for _main_clock
    entry.o(.ARM.Collect$$$$00000000) refers (Special) to entry8b.o(.ARM.Collect$$$$0000000A) for _main_cpp_init
    entry.o(.ARM.Collect$$$$00000000) refers (Special) to entry9a.o(.ARM.Collect$$$$0000000B) for _main_init
    entry.o(.ARM.Collect$$$$00000000) refers (Special) to entry5.o(.ARM.Collect$$$$00000004) for _main_scatterload
    entry.o(.ARM.Collect$$$$00000000) refers (Special) to entry2.o(.ARM.Collect$$$$00000001) for _main_stk
    ldiv.o(.text) refers to uldiv.o(.text) for __aeabi_uldivmod
    printfb.o(i.__0fprintf$bare) refers to printfb.o(i._printf_core) for _printf_core
    printfb.o(i.__0fprintf$bare) refers to drive_usart.o(i.fputc) for fputc
    printfb.o(i.__0printf$bare) refers to printfb.o(i._printf_core) for _printf_core
    printfb.o(i.__0printf$bare) refers to drive_usart.o(i.fputc) for fputc
    printfb.o(i.__0printf$bare) refers to drive_usart.o(.data) for __stdout
    printfb.o(i.__0snprintf$bare) refers to printfb.o(i._printf_core) for _printf_core
    printfb.o(i.__0snprintf$bare) refers to printfb.o(i._snputc) for _snputc
    printfb.o(i.__0sprintf$bare) refers to printfb.o(i._printf_core) for _printf_core
    printfb.o(i.__0sprintf$bare) refers to printfb.o(i._sputc) for _sputc
    printfb.o(i.__0vfprintf$bare) refers to printfb.o(i._printf_core) for _printf_core
    printfb.o(i.__0vfprintf$bare) refers to drive_usart.o(i.fputc) for fputc
    printfb.o(i.__0vprintf$bare) refers to printfb.o(i._printf_core) for _printf_core
    printfb.o(i.__0vprintf$bare) refers to drive_usart.o(i.fputc) for fputc
    printfb.o(i.__0vprintf$bare) refers to drive_usart.o(.data) for __stdout
    printfb.o(i.__0vsnprintf$bare) refers to printfb.o(i._printf_core) for _printf_core
    printfb.o(i.__0vsnprintf$bare) refers to printfb.o(i._snputc) for _snputc
    printfb.o(i.__0vsprintf$bare) refers to printfb.o(i._printf_core) for _printf_core
    printfb.o(i.__0vsprintf$bare) refers to printfb.o(i._sputc) for _sputc
    printf0.o(i.__0fprintf$0) refers to printf0.o(i._printf_core) for _printf_core
    printf0.o(i.__0fprintf$0) refers to drive_usart.o(i.fputc) for fputc
    printf0.o(i.__0printf$0) refers to printf0.o(i._printf_core) for _printf_core
    printf0.o(i.__0printf$0) refers to drive_usart.o(i.fputc) for fputc
    printf0.o(i.__0printf$0) refers to drive_usart.o(.data) for __stdout
    printf0.o(i.__0snprintf$0) refers to printf0.o(i._printf_core) for _printf_core
    printf0.o(i.__0snprintf$0) refers to printf0.o(i._snputc) for _snputc
    printf0.o(i.__0sprintf$0) refers to printf0.o(i._printf_core) for _printf_core
    printf0.o(i.__0sprintf$0) refers to printf0.o(i._sputc) for _sputc
    printf0.o(i.__0vfprintf$0) refers to printf0.o(i._printf_core) for _printf_core
    printf0.o(i.__0vfprintf$0) refers to drive_usart.o(i.fputc) for fputc
    printf0.o(i.__0vprintf$0) refers to printf0.o(i._printf_core) for _printf_core
    printf0.o(i.__0vprintf$0) refers to drive_usart.o(i.fputc) for fputc
    printf0.o(i.__0vprintf$0) refers to drive_usart.o(.data) for __stdout
    printf0.o(i.__0vsnprintf$0) refers to printf0.o(i._printf_core) for _printf_core
    printf0.o(i.__0vsnprintf$0) refers to printf0.o(i._snputc) for _snputc
    printf0.o(i.__0vsprintf$0) refers to printf0.o(i._printf_core) for _printf_core
    printf0.o(i.__0vsprintf$0) refers to printf0.o(i._sputc) for _sputc
    printf1.o(i.__0fprintf$1) refers to printf1.o(i._printf_core) for _printf_core
    printf1.o(i.__0fprintf$1) refers to drive_usart.o(i.fputc) for fputc
    printf1.o(i.__0printf$1) refers to printf1.o(i._printf_core) for _printf_core
    printf1.o(i.__0printf$1) refers to drive_usart.o(i.fputc) for fputc
    printf1.o(i.__0printf$1) refers to drive_usart.o(.data) for __stdout
    printf1.o(i.__0snprintf$1) refers to printf1.o(i._printf_core) for _printf_core
    printf1.o(i.__0snprintf$1) refers to printf1.o(i._snputc) for _snputc
    printf1.o(i.__0sprintf$1) refers to printf1.o(i._printf_core) for _printf_core
    printf1.o(i.__0sprintf$1) refers to printf1.o(i._sputc) for _sputc
    printf1.o(i.__0vfprintf$1) refers to printf1.o(i._printf_core) for _printf_core
    printf1.o(i.__0vfprintf$1) refers to drive_usart.o(i.fputc) for fputc
    printf1.o(i.__0vprintf$1) refers to printf1.o(i._printf_core) for _printf_core
    printf1.o(i.__0vprintf$1) refers to drive_usart.o(i.fputc) for fputc
    printf1.o(i.__0vprintf$1) refers to drive_usart.o(.data) for __stdout
    printf1.o(i.__0vsnprintf$1) refers to printf1.o(i._printf_core) for _printf_core
    printf1.o(i.__0vsnprintf$1) refers to printf1.o(i._snputc) for _snputc
    printf1.o(i.__0vsprintf$1) refers to printf1.o(i._printf_core) for _printf_core
    printf1.o(i.__0vsprintf$1) refers to printf1.o(i._sputc) for _sputc
    printf1.o(i._printf_core) refers to uidiv.o(.text) for __aeabi_uidivmod
    printf2.o(i.__0fprintf$2) refers to printf2.o(i._printf_core) for _printf_core
    printf2.o(i.__0fprintf$2) refers to drive_usart.o(i.fputc) for fputc
    printf2.o(i.__0printf$2) refers to printf2.o(i._printf_core) for _printf_core
    printf2.o(i.__0printf$2) refers to drive_usart.o(i.fputc) for fputc
    printf2.o(i.__0printf$2) refers to drive_usart.o(.data) for __stdout
    printf2.o(i.__0snprintf$2) refers to printf2.o(i._printf_core) for _printf_core
    printf2.o(i.__0snprintf$2) refers to printf2.o(i._snputc) for _snputc
    printf2.o(i.__0sprintf$2) refers to printf2.o(i._printf_core) for _printf_core
    printf2.o(i.__0sprintf$2) refers to printf2.o(i._sputc) for _sputc
    printf2.o(i.__0vfprintf$2) refers to printf2.o(i._printf_core) for _printf_core
    printf2.o(i.__0vfprintf$2) refers to drive_usart.o(i.fputc) for fputc
    printf2.o(i.__0vprintf$2) refers to printf2.o(i._printf_core) for _printf_core
    printf2.o(i.__0vprintf$2) refers to drive_usart.o(i.fputc) for fputc
    printf2.o(i.__0vprintf$2) refers to drive_usart.o(.data) for __stdout
    printf2.o(i.__0vsnprintf$2) refers to printf2.o(i._printf_core) for _printf_core
    printf2.o(i.__0vsnprintf$2) refers to printf2.o(i._snputc) for _snputc
    printf2.o(i.__0vsprintf$2) refers to printf2.o(i._printf_core) for _printf_core
    printf2.o(i.__0vsprintf$2) refers to printf2.o(i._sputc) for _sputc
    printf3.o(i.__0fprintf$3) refers to printf3.o(i._printf_core) for _printf_core
    printf3.o(i.__0fprintf$3) refers to drive_usart.o(i.fputc) for fputc
    printf3.o(i.__0printf$3) refers to printf3.o(i._printf_core) for _printf_core
    printf3.o(i.__0printf$3) refers to drive_usart.o(i.fputc) for fputc
    printf3.o(i.__0printf$3) refers to drive_usart.o(.data) for __stdout
    printf3.o(i.__0snprintf$3) refers to printf3.o(i._printf_core) for _printf_core
    printf3.o(i.__0snprintf$3) refers to printf3.o(i._snputc) for _snputc
    printf3.o(i.__0sprintf$3) refers to printf3.o(i._printf_core) for _printf_core
    printf3.o(i.__0sprintf$3) refers to printf3.o(i._sputc) for _sputc
    printf3.o(i.__0vfprintf$3) refers to printf3.o(i._printf_core) for _printf_core
    printf3.o(i.__0vfprintf$3) refers to drive_usart.o(i.fputc) for fputc
    printf3.o(i.__0vprintf$3) refers to printf3.o(i._printf_core) for _printf_core
    printf3.o(i.__0vprintf$3) refers to drive_usart.o(i.fputc) for fputc
    printf3.o(i.__0vprintf$3) refers to drive_usart.o(.data) for __stdout
    printf3.o(i.__0vsnprintf$3) refers to printf3.o(i._printf_core) for _printf_core
    printf3.o(i.__0vsnprintf$3) refers to printf3.o(i._snputc) for _snputc
    printf3.o(i.__0vsprintf$3) refers to printf3.o(i._printf_core) for _printf_core
    printf3.o(i.__0vsprintf$3) refers to printf3.o(i._sputc) for _sputc
    printf3.o(i._printf_core) refers to uidiv.o(.text) for __aeabi_uidivmod
    printf4.o(i.__0fprintf$4) refers to printf4.o(i._printf_core) for _printf_core
    printf4.o(i.__0fprintf$4) refers to drive_usart.o(i.fputc) for fputc
    printf4.o(i.__0printf$4) refers to printf4.o(i._printf_core) for _printf_core
    printf4.o(i.__0printf$4) refers to drive_usart.o(i.fputc) for fputc
    printf4.o(i.__0printf$4) refers to drive_usart.o(.data) for __stdout
    printf4.o(i.__0snprintf$4) refers to printf4.o(i._printf_core) for _printf_core
    printf4.o(i.__0snprintf$4) refers to printf4.o(i._snputc) for _snputc
    printf4.o(i.__0sprintf$4) refers to printf4.o(i._printf_core) for _printf_core
    printf4.o(i.__0sprintf$4) refers to printf4.o(i._sputc) for _sputc
    printf4.o(i.__0vfprintf$4) refers to printf4.o(i._printf_core) for _printf_core
    printf4.o(i.__0vfprintf$4) refers to drive_usart.o(i.fputc) for fputc
    printf4.o(i.__0vprintf$4) refers to printf4.o(i._printf_core) for _printf_core
    printf4.o(i.__0vprintf$4) refers to drive_usart.o(i.fputc) for fputc
    printf4.o(i.__0vprintf$4) refers to drive_usart.o(.data) for __stdout
    printf4.o(i.__0vsnprintf$4) refers to printf4.o(i._printf_core) for _printf_core
    printf4.o(i.__0vsnprintf$4) refers to printf4.o(i._snputc) for _snputc
    printf4.o(i.__0vsprintf$4) refers to printf4.o(i._printf_core) for _printf_core
    printf4.o(i.__0vsprintf$4) refers to printf4.o(i._sputc) for _sputc
    printf4.o(i._printf_core) refers to uldiv.o(.text) for __aeabi_uldivmod
    printf5.o(i.__0fprintf$5) refers to printf5.o(i._printf_core) for _printf_core
    printf5.o(i.__0fprintf$5) refers to drive_usart.o(i.fputc) for fputc
    printf5.o(i.__0printf$5) refers to printf5.o(i._printf_core) for _printf_core
    printf5.o(i.__0printf$5) refers to drive_usart.o(i.fputc) for fputc
    printf5.o(i.__0printf$5) refers to drive_usart.o(.data) for __stdout
    printf5.o(i.__0snprintf$5) refers to printf5.o(i._printf_core) for _printf_core
    printf5.o(i.__0snprintf$5) refers to printf5.o(i._snputc) for _snputc
    printf5.o(i.__0sprintf$5) refers to printf5.o(i._printf_core) for _printf_core
    printf5.o(i.__0sprintf$5) refers to printf5.o(i._sputc) for _sputc
    printf5.o(i.__0vfprintf$5) refers to printf5.o(i._printf_core) for _printf_core
    printf5.o(i.__0vfprintf$5) refers to drive_usart.o(i.fputc) for fputc
    printf5.o(i.__0vprintf$5) refers to printf5.o(i._printf_core) for _printf_core
    printf5.o(i.__0vprintf$5) refers to drive_usart.o(i.fputc) for fputc
    printf5.o(i.__0vprintf$5) refers to drive_usart.o(.data) for __stdout
    printf5.o(i.__0vsnprintf$5) refers to printf5.o(i._printf_core) for _printf_core
    printf5.o(i.__0vsnprintf$5) refers to printf5.o(i._snputc) for _snputc
    printf5.o(i.__0vsprintf$5) refers to printf5.o(i._printf_core) for _printf_core
    printf5.o(i.__0vsprintf$5) refers to printf5.o(i._sputc) for _sputc
    printf5.o(i._printf_core) refers to uldiv.o(.text) for __aeabi_uldivmod
    printf6.o(i.__0fprintf$6) refers to printf6.o(i._printf_core) for _printf_core
    printf6.o(i.__0fprintf$6) refers to drive_usart.o(i.fputc) for fputc
    printf6.o(i.__0printf$6) refers to printf6.o(i._printf_core) for _printf_core
    printf6.o(i.__0printf$6) refers to drive_usart.o(i.fputc) for fputc
    printf6.o(i.__0printf$6) refers to drive_usart.o(.data) for __stdout
    printf6.o(i.__0snprintf$6) refers to printf6.o(i._printf_core) for _printf_core
    printf6.o(i.__0snprintf$6) refers to printf6.o(i._snputc) for _snputc
    printf6.o(i.__0sprintf$6) refers to printf6.o(i._printf_core) for _printf_core
    printf6.o(i.__0sprintf$6) refers to printf6.o(i._sputc) for _sputc
    printf6.o(i.__0vfprintf$6) refers to printf6.o(i._printf_core) for _printf_core
    printf6.o(i.__0vfprintf$6) refers to drive_usart.o(i.fputc) for fputc
    printf6.o(i.__0vprintf$6) refers to printf6.o(i._printf_core) for _printf_core
    printf6.o(i.__0vprintf$6) refers to drive_usart.o(i.fputc) for fputc
    printf6.o(i.__0vprintf$6) refers to drive_usart.o(.data) for __stdout
    printf6.o(i.__0vsnprintf$6) refers to printf6.o(i._printf_core) for _printf_core
    printf6.o(i.__0vsnprintf$6) refers to printf6.o(i._snputc) for _snputc
    printf6.o(i.__0vsprintf$6) refers to printf6.o(i._printf_core) for _printf_core
    printf6.o(i.__0vsprintf$6) refers to printf6.o(i._sputc) for _sputc
    printf6.o(i._printf_core) refers to printf6.o(i._printf_pre_padding) for _printf_pre_padding
    printf6.o(i._printf_core) refers to uidiv.o(.text) for __aeabi_uidivmod
    printf6.o(i._printf_core) refers to printf6.o(i._printf_post_padding) for _printf_post_padding
    printf7.o(i.__0fprintf$7) refers to printf7.o(i._printf_core) for _printf_core
    printf7.o(i.__0fprintf$7) refers to drive_usart.o(i.fputc) for fputc
    printf7.o(i.__0printf$7) refers to printf7.o(i._printf_core) for _printf_core
    printf7.o(i.__0printf$7) refers to drive_usart.o(i.fputc) for fputc
    printf7.o(i.__0printf$7) refers to drive_usart.o(.data) for __stdout
    printf7.o(i.__0snprintf$7) refers to printf7.o(i._printf_core) for _printf_core
    printf7.o(i.__0snprintf$7) refers to printf7.o(i._snputc) for _snputc
    printf7.o(i.__0sprintf$7) refers to printf7.o(i._printf_core) for _printf_core
    printf7.o(i.__0sprintf$7) refers to printf7.o(i._sputc) for _sputc
    printf7.o(i.__0vfprintf$7) refers to printf7.o(i._printf_core) for _printf_core
    printf7.o(i.__0vfprintf$7) refers to drive_usart.o(i.fputc) for fputc
    printf7.o(i.__0vprintf$7) refers to printf7.o(i._printf_core) for _printf_core
    printf7.o(i.__0vprintf$7) refers to drive_usart.o(i.fputc) for fputc
    printf7.o(i.__0vprintf$7) refers to drive_usart.o(.data) for __stdout
    printf7.o(i.__0vsnprintf$7) refers to printf7.o(i._printf_core) for _printf_core
    printf7.o(i.__0vsnprintf$7) refers to printf7.o(i._snputc) for _snputc
    printf7.o(i.__0vsprintf$7) refers to printf7.o(i._printf_core) for _printf_core
    printf7.o(i.__0vsprintf$7) refers to printf7.o(i._sputc) for _sputc
    printf7.o(i._printf_core) refers to printf7.o(i._printf_pre_padding) for _printf_pre_padding
    printf7.o(i._printf_core) refers to uldiv.o(.text) for __aeabi_uldivmod
    printf7.o(i._printf_core) refers to printf7.o(i._printf_post_padding) for _printf_post_padding
    printf8.o(i.__0fprintf$8) refers to printf8.o(i._printf_core) for _printf_core
    printf8.o(i.__0fprintf$8) refers to drive_usart.o(i.fputc) for fputc
    printf8.o(i.__0printf$8) refers to printf8.o(i._printf_core) for _printf_core
    printf8.o(i.__0printf$8) refers to drive_usart.o(i.fputc) for fputc
    printf8.o(i.__0printf$8) refers to drive_usart.o(.data) for __stdout
    printf8.o(i.__0snprintf$8) refers to printf8.o(i._printf_core) for _printf_core
    printf8.o(i.__0snprintf$8) refers to printf8.o(i._snputc) for _snputc
    printf8.o(i.__0sprintf$8) refers to printf8.o(i._printf_core) for _printf_core
    printf8.o(i.__0sprintf$8) refers to printf8.o(i._sputc) for _sputc
    printf8.o(i.__0vfprintf$8) refers to printf8.o(i._printf_core) for _printf_core
    printf8.o(i.__0vfprintf$8) refers to drive_usart.o(i.fputc) for fputc
    printf8.o(i.__0vprintf$8) refers to printf8.o(i._printf_core) for _printf_core
    printf8.o(i.__0vprintf$8) refers to drive_usart.o(i.fputc) for fputc
    printf8.o(i.__0vprintf$8) refers to drive_usart.o(.data) for __stdout
    printf8.o(i.__0vsnprintf$8) refers to printf8.o(i._printf_core) for _printf_core
    printf8.o(i.__0vsnprintf$8) refers to printf8.o(i._snputc) for _snputc
    printf8.o(i.__0vsprintf$8) refers to printf8.o(i._printf_core) for _printf_core
    printf8.o(i.__0vsprintf$8) refers to printf8.o(i._sputc) for _sputc
    printf8.o(i._printf_core) refers to printf8.o(i._printf_pre_padding) for _printf_pre_padding
    printf8.o(i._printf_core) refers to uldiv.o(.text) for __aeabi_uldivmod
    printf8.o(i._printf_core) refers to printf8.o(i._printf_post_padding) for _printf_post_padding
    printfa.o(i.__0fprintf) refers (Special) to iusefp.o(.text) for __I$use$fp
    printfa.o(i.__0fprintf) refers to printfa.o(i._printf_core) for _printf_core
    printfa.o(i.__0fprintf) refers to drive_usart.o(i.fputc) for fputc
    printfa.o(i.__0printf) refers (Special) to iusefp.o(.text) for __I$use$fp
    printfa.o(i.__0printf) refers to printfa.o(i._printf_core) for _printf_core
    printfa.o(i.__0printf) refers to drive_usart.o(i.fputc) for fputc
    printfa.o(i.__0printf) refers to drive_usart.o(.data) for __stdout
    printfa.o(i.__0snprintf) refers (Special) to iusefp.o(.text) for __I$use$fp
    printfa.o(i.__0snprintf) refers to printfa.o(i._printf_core) for _printf_core
    printfa.o(i.__0snprintf) refers to printfa.o(i._snputc) for _snputc
    printfa.o(i.__0sprintf) refers (Special) to iusefp.o(.text) for __I$use$fp
    printfa.o(i.__0sprintf) refers to printfa.o(i._printf_core) for _printf_core
    printfa.o(i.__0sprintf) refers to printfa.o(i._sputc) for _sputc
    printfa.o(i.__0vfprintf) refers (Special) to iusefp.o(.text) for __I$use$fp
    printfa.o(i.__0vfprintf) refers to printfa.o(i._printf_core) for _printf_core
    printfa.o(i.__0vfprintf) refers to drive_usart.o(i.fputc) for fputc
    printfa.o(i.__0vprintf) refers (Special) to iusefp.o(.text) for __I$use$fp
    printfa.o(i.__0vprintf) refers to printfa.o(i._printf_core) for _printf_core
    printfa.o(i.__0vprintf) refers to drive_usart.o(i.fputc) for fputc
    printfa.o(i.__0vprintf) refers to drive_usart.o(.data) for __stdout
    printfa.o(i.__0vsnprintf) refers (Special) to iusefp.o(.text) for __I$use$fp
    printfa.o(i.__0vsnprintf) refers to printfa.o(i._printf_core) for _printf_core
    printfa.o(i.__0vsnprintf) refers to printfa.o(i._snputc) for _snputc
    printfa.o(i.__0vsprintf) refers (Special) to iusefp.o(.text) for __I$use$fp
    printfa.o(i.__0vsprintf) refers to printfa.o(i._printf_core) for _printf_core
    printfa.o(i.__0vsprintf) refers to printfa.o(i._sputc) for _sputc
    printfa.o(i._fp_digits) refers (Special) to iusefp.o(.text) for __I$use$fp
    printfa.o(i._fp_digits) refers to dmul.o(.text) for __aeabi_dmul
    printfa.o(i._fp_digits) refers to ddiv.o(.text) for __aeabi_ddiv
    printfa.o(i._fp_digits) refers to cdrcmple.o(.text) for __aeabi_cdrcmple
    printfa.o(i._fp_digits) refers to dadd.o(.text) for __aeabi_dadd
    printfa.o(i._fp_digits) refers to dfixul.o(.text) for __aeabi_d2ulz
    printfa.o(i._fp_digits) refers to uldiv.o(.text) for __aeabi_uldivmod
    printfa.o(i._printf_core) refers (Special) to iusefp.o(.text) for __I$use$fp
    printfa.o(i._printf_core) refers to printfa.o(i._printf_pre_padding) for _printf_pre_padding
    printfa.o(i._printf_core) refers to uldiv.o(.text) for __aeabi_uldivmod
    printfa.o(i._printf_core) refers to printfa.o(i._printf_post_padding) for _printf_post_padding
    printfa.o(i._printf_core) refers to printfa.o(i._fp_digits) for _fp_digits
    printfa.o(i._printf_core) refers to uidiv.o(.text) for __aeabi_uidivmod
    printfa.o(i._printf_post_padding) refers (Special) to iusefp.o(.text) for __I$use$fp
    printfa.o(i._printf_pre_padding) refers (Special) to iusefp.o(.text) for __I$use$fp
    printfa.o(i._snputc) refers (Special) to iusefp.o(.text) for __I$use$fp
    printfa.o(i._sputc) refers (Special) to iusefp.o(.text) for __I$use$fp
    malloc.o(i.free) refers to mvars.o(.data) for __microlib_freelist
    malloc.o(i.malloc) refers to mvars.o(.data) for __microlib_freelist_initialised
    malloc.o(i.malloc) refers to mvars.o(.data) for __microlib_freelist
    malloc.o(i.malloc) refers to startup_stm32f10x_hd.o(HEAP) for __heap_base
    mallocr.o(i.__free$realloc) refers to mvars.o(.data) for __microlib_freelist
    mallocr.o(i.__malloc$realloc) refers to mallocr.o(i.internal_alloc) for internal_alloc
    mallocr.o(i.__malloc$realloc) refers to mvars.o(.data) for __microlib_freelist_initialised
    mallocr.o(i.__malloc$realloc) refers to startup_stm32f10x_hd.o(HEAP) for __heap_base
    mallocr.o(i.__malloc$realloc) refers to mvars.o(.data) for __microlib_freelist
    mallocr.o(i.internal_alloc) refers to memcpya.o(.text) for __aeabi_memcpy
    mallocr.o(i.internal_alloc) refers to mvars.o(.data) for __microlib_freelist
    mallocr.o(i.realloc) refers to mallocr.o(i.__free$realloc) for __free$realloc
    mallocr.o(i.realloc) refers to mallocr.o(i.internal_alloc) for internal_alloc
    mallocr.o(i.realloc) refers to mallocr.o(i.__malloc$realloc) for __malloc$realloc
    mallocr.o(i.realloc) refers to mvars.o(.data) for __microlib_freelist
    malloca.o(i.__aligned_malloc) refers to mvars.o(.data) for __microlib_freelist_initialised
    malloca.o(i.__aligned_malloc) refers to mvars.o(.data) for __microlib_freelist
    malloca.o(i.__aligned_malloc) refers to startup_stm32f10x_hd.o(HEAP) for __heap_base
    malloca.o(i.__free$memalign) refers to mvars.o(.data) for __microlib_freelist
    malloca.o(i.__malloc$memalign) refers to malloca.o(i.__aligned_malloc) for __aligned_malloc
    mallocra.o(i.__aligned_malloc$realloc) refers to mallocra.o(i.internal_alloc) for internal_alloc
    mallocra.o(i.__aligned_malloc$realloc) refers to mvars.o(.data) for __microlib_freelist_initialised
    mallocra.o(i.__aligned_malloc$realloc) refers to startup_stm32f10x_hd.o(HEAP) for __heap_base
    mallocra.o(i.__aligned_malloc$realloc) refers to mvars.o(.data) for __microlib_freelist
    mallocra.o(i.__free$realloc$memalign) refers to mvars.o(.data) for __microlib_freelist
    mallocra.o(i.__malloc$realloc$memalign) refers to mallocra.o(i.__aligned_malloc$realloc) for __aligned_malloc$realloc
    mallocra.o(i.__realloc$memalign) refers to mallocra.o(i.__free$realloc$memalign) for __free$realloc$memalign
    mallocra.o(i.__realloc$memalign) refers to mallocra.o(i.internal_alloc) for internal_alloc
    mallocra.o(i.__realloc$memalign) refers to mallocra.o(i.__malloc$realloc$memalign) for __malloc$realloc$memalign
    mallocra.o(i.__realloc$memalign) refers to mvars.o(.data) for __microlib_freelist
    mallocra.o(i.internal_alloc) refers to memcpya.o(.text) for __aeabi_memcpy
    mallocra.o(i.internal_alloc) refers to mvars.o(.data) for __microlib_freelist
    fadd.o(.text) refers (Special) to iusefp.o(.text) for __I$use$fp
    fadd.o(.text) refers to fepilogue.o(.text) for _float_epilogue
    fmul.o(.text) refers (Special) to iusefp.o(.text) for __I$use$fp
    fdiv.o(.text) refers (Special) to iusefp.o(.text) for __I$use$fp
    fdiv.o(.text) refers to fepilogue.o(.text) for _float_round
    dadd.o(.text) refers (Special) to iusefp.o(.text) for __I$use$fp
    dadd.o(.text) refers to llshl.o(.text) for __aeabi_llsl
    dadd.o(.text) refers to llsshr.o(.text) for __aeabi_lasr
    dadd.o(.text) refers to depilogue.o(.text) for _double_epilogue
    dmul.o(.text) refers (Special) to iusefp.o(.text) for __I$use$fp
    dmul.o(.text) refers to depilogue.o(.text) for _double_epilogue
    ddiv.o(.text) refers (Special) to iusefp.o(.text) for __I$use$fp
    ddiv.o(.text) refers to depilogue.o(.text) for _double_round
    fflti.o(.text) refers (Special) to iusefp.o(.text) for __I$use$fp
    fflti.o(.text) refers to fepilogue.o(.text) for _float_epilogue
    ffltui.o(.text) refers (Special) to iusefp.o(.text) for __I$use$fp
    ffltui.o(.text) refers to fepilogue.o(.text) for _float_epilogue
    dflti.o(.text) refers (Special) to iusefp.o(.text) for __I$use$fp
    dflti.o(.text) refers to depilogue.o(.text) for _double_epilogue
    dfltui.o(.text) refers (Special) to iusefp.o(.text) for __I$use$fp
    dfltui.o(.text) refers to depilogue.o(.text) for _double_epilogue
    ffixi.o(.text) refers (Special) to iusefp.o(.text) for __I$use$fp
    ffixui.o(.text) refers (Special) to iusefp.o(.text) for __I$use$fp
    dfixi.o(.text) refers (Special) to iusefp.o(.text) for __I$use$fp
    dfixi.o(.text) refers to llushr.o(.text) for __aeabi_llsr
    dfixui.o(.text) refers (Special) to iusefp.o(.text) for __I$use$fp
    dfixui.o(.text) refers to llushr.o(.text) for __aeabi_llsr
    f2d.o(.text) refers (Special) to iusefp.o(.text) for __I$use$fp
    cdcmple.o(.text) refers (Special) to iusefp.o(.text) for __I$use$fp
    cdrcmple.o(.text) refers (Special) to iusefp.o(.text) for __I$use$fp
    d2f.o(.text) refers (Special) to iusefp.o(.text) for __I$use$fp
    d2f.o(.text) refers to fepilogue.o(.text) for _float_round
    cfcmple.o(.text) refers (Special) to iusefp.o(.text) for __I$use$fp
    cfrcmple.o(.text) refers (Special) to iusefp.o(.text) for __I$use$fp
    atan.o(i.__softfp_atan) refers (Special) to iusefp.o(.text) for __I$use$fp
    atan.o(i.__softfp_atan) refers to atan.o(i.atan) for atan
    atan.o(i.atan) refers (Special) to iusefp.o(.text) for __I$use$fp
    atan.o(i.atan) refers to dunder.o(i.__mathlib_dbl_infnan) for __mathlib_dbl_infnan
    atan.o(i.atan) refers to fpclassify.o(i.__ARM_fpclassify) for __ARM_fpclassify
    atan.o(i.atan) refers to dunder.o(i.__mathlib_dbl_underflow) for __mathlib_dbl_underflow
    atan.o(i.atan) refers to dadd.o(.text) for __aeabi_dadd
    atan.o(i.atan) refers to dscalb.o(.text) for __ARM_scalbn
    atan.o(i.atan) refers to ddiv.o(.text) for __aeabi_ddiv
    atan.o(i.atan) refers to dmul.o(.text) for __aeabi_dmul
    atan.o(i.atan) refers to poly.o(i.__kernel_poly) for __kernel_poly
    atan.o(i.atan) refers to atan.o(.constdata) for .constdata
    atan.o(.constdata) refers (Special) to iusefp.o(.text) for __I$use$fp
    atan_x.o(i.____softfp_atan$lsc) refers (Special) to iusefp.o(.text) for __I$use$fp
    atan_x.o(i.____softfp_atan$lsc) refers to atan_x.o(i.__atan$lsc) for __atan$lsc
    atan_x.o(i.__atan$lsc) refers (Special) to iusefp.o(.text) for __I$use$fp
    atan_x.o(i.__atan$lsc) refers to dunder.o(i.__mathlib_dbl_infnan) for __mathlib_dbl_infnan
    atan_x.o(i.__atan$lsc) refers to dadd.o(.text) for __aeabi_dadd
    atan_x.o(i.__atan$lsc) refers to dscalb.o(.text) for __ARM_scalbn
    atan_x.o(i.__atan$lsc) refers to ddiv.o(.text) for __aeabi_ddiv
    atan_x.o(i.__atan$lsc) refers to dmul.o(.text) for __aeabi_dmul
    atan_x.o(i.__atan$lsc) refers to poly.o(i.__kernel_poly) for __kernel_poly
    atan_x.o(i.__atan$lsc) refers to atan_x.o(.constdata) for .constdata
    atan_x.o(.constdata) refers (Special) to iusefp.o(.text) for __I$use$fp
    cos_i.o(i.__kernel_cos) refers (Special) to iusefp.o(.text) for __I$use$fp
    cos_i.o(i.__kernel_cos) refers to dfixi.o(.text) for __aeabi_d2iz
    cos_i.o(i.__kernel_cos) refers to dmul.o(.text) for __aeabi_dmul
    cos_i.o(i.__kernel_cos) refers to poly.o(i.__kernel_poly) for __kernel_poly
    cos_i.o(i.__kernel_cos) refers to dadd.o(.text) for __aeabi_dsub
    cos_i.o(i.__kernel_cos) refers to dscalb.o(.text) for __ARM_scalbn
    cos_i.o(i.__kernel_cos) refers to cos_i.o(.constdata) for .constdata
    cos_i.o(.constdata) refers (Special) to iusefp.o(.text) for __I$use$fp
    dunder.o(i.__mathlib_dbl_divzero) refers to ddiv.o(.text) for __aeabi_ddiv
    dunder.o(i.__mathlib_dbl_infnan) refers to dscalb.o(.text) for __ARM_scalbn
    dunder.o(i.__mathlib_dbl_infnan2) refers to dadd.o(.text) for __aeabi_dadd
    dunder.o(i.__mathlib_dbl_invalid) refers to ddiv.o(.text) for __aeabi_ddiv
    dunder.o(i.__mathlib_dbl_overflow) refers to dscalb.o(.text) for __ARM_scalbn
    dunder.o(i.__mathlib_dbl_posinfnan) refers to dmul.o(.text) for __aeabi_dmul
    dunder.o(i.__mathlib_dbl_underflow) refers to dscalb.o(.text) for __ARM_scalbn
    fpclassify.o(i.__ARM_fpclassify) refers (Special) to iusefp.o(.text) for __I$use$fp
    poly.o(i.__kernel_poly) refers (Special) to iusefp.o(.text) for __I$use$fp
    poly.o(i.__kernel_poly) refers to dmul.o(.text) for __aeabi_dmul
    poly.o(i.__kernel_poly) refers to dadd.o(.text) for __aeabi_dadd
    qnan.o(.constdata) refers (Special) to iusefp.o(.text) for __I$use$fp
    rred.o(i.__ieee754_rem_pio2) refers (Special) to iusefp.o(.text) for __I$use$fp
    rred.o(i.__ieee754_rem_pio2) refers to dadd.o(.text) for __aeabi_dsub
    rred.o(i.__ieee754_rem_pio2) refers to dmul.o(.text) for __aeabi_dmul
    rred.o(i.__ieee754_rem_pio2) refers to dfixi.o(.text) for __aeabi_d2iz
    rred.o(i.__ieee754_rem_pio2) refers to dflti.o(.text) for __aeabi_i2d
    rred.o(i.__ieee754_rem_pio2) refers to dfltui.o(.text) for __aeabi_ui2d
    rred.o(i.__ieee754_rem_pio2) refers to dscalb.o(.text) for __ARM_scalbn
    rred.o(i.__ieee754_rem_pio2) refers to rred.o(.constdata) for .constdata
    rred.o(i.__use_accurate_range_reduction) refers (Special) to iusefp.o(.text) for __I$use$fp
    rred.o(.constdata) refers (Special) to iusefp.o(.text) for __I$use$fp
    sin_i.o(i.__kernel_sin) refers (Special) to iusefp.o(.text) for __I$use$fp
    sin_i.o(i.__kernel_sin) refers to fpclassify.o(i.__ARM_fpclassify) for __ARM_fpclassify
    sin_i.o(i.__kernel_sin) refers to dunder.o(i.__mathlib_dbl_underflow) for __mathlib_dbl_underflow
    sin_i.o(i.__kernel_sin) refers to dmul.o(.text) for __aeabi_dmul
    sin_i.o(i.__kernel_sin) refers to poly.o(i.__kernel_poly) for __kernel_poly
    sin_i.o(i.__kernel_sin) refers to dscalb.o(.text) for __ARM_scalbn
    sin_i.o(i.__kernel_sin) refers to dadd.o(.text) for __aeabi_dsub
    sin_i.o(i.__kernel_sin) refers to sin_i.o(.constdata) for .constdata
    sin_i.o(.constdata) refers (Special) to iusefp.o(.text) for __I$use$fp
    sin_i_x.o(i.____kernel_sin$lsc) refers (Special) to iusefp.o(.text) for __I$use$fp
    sin_i_x.o(i.____kernel_sin$lsc) refers to dmul.o(.text) for __aeabi_dmul
    sin_i_x.o(i.____kernel_sin$lsc) refers to poly.o(i.__kernel_poly) for __kernel_poly
    sin_i_x.o(i.____kernel_sin$lsc) refers to dscalb.o(.text) for __ARM_scalbn
    sin_i_x.o(i.____kernel_sin$lsc) refers to dadd.o(.text) for __aeabi_dsub
    sin_i_x.o(i.____kernel_sin$lsc) refers to sin_i_x.o(.constdata) for .constdata
    sin_i_x.o(.constdata) refers (Special) to iusefp.o(.text) for __I$use$fp
    sqrt.o(i.__softfp_sqrt) refers (Special) to iusefp.o(.text) for __I$use$fp
    sqrt.o(i.__softfp_sqrt) refers to dsqrt.o(.text) for _dsqrt
    sqrt.o(i.__softfp_sqrt) refers to errno.o(i.__set_errno) for __set_errno
    sqrt.o(i.sqrt) refers (Special) to iusefp.o(.text) for __I$use$fp
    sqrt.o(i.sqrt) refers to dsqrt.o(.text) for _dsqrt
    sqrt.o(i.sqrt) refers to errno.o(i.__set_errno) for __set_errno
    sqrt_x.o(i.____softfp_sqrt$lsc) refers (Special) to iusefp.o(.text) for __I$use$fp
    sqrt_x.o(i.____softfp_sqrt$lsc) refers to cdcmple.o(.text) for __aeabi_cdcmple
    sqrt_x.o(i.____softfp_sqrt$lsc) refers to errno.o(i.__set_errno) for __set_errno
    sqrt_x.o(i.____softfp_sqrt$lsc) refers to dsqrt.o(.text) for _dsqrt
    sqrt_x.o(i.__sqrt$lsc) refers (Special) to iusefp.o(.text) for __I$use$fp
    sqrt_x.o(i.__sqrt$lsc) refers to cdcmple.o(.text) for __aeabi_cdcmple
    sqrt_x.o(i.__sqrt$lsc) refers to errno.o(i.__set_errno) for __set_errno
    sqrt_x.o(i.__sqrt$lsc) refers to dsqrt.o(.text) for _dsqrt
    entry2.o(.ARM.Collect$$$$00000001) refers to entry2.o(.ARM.Collect$$$$00002712) for __lit__00000000
    entry2.o(.ARM.Collect$$$$00002712) refers to startup_stm32f10x_hd.o(STACK) for __initial_sp
    entry2.o(__vectab_stack_and_reset_area) refers to startup_stm32f10x_hd.o(STACK) for __initial_sp
    entry2.o(__vectab_stack_and_reset_area) refers to entry.o(.ARM.Collect$$$$00000000) for __main
    entry5.o(.ARM.Collect$$$$00000004) refers to init.o(.text) for __scatterload
    entry9a.o(.ARM.Collect$$$$0000000B) refers to main.o(i.main) for main
    entry9b.o(.ARM.Collect$$$$0000000C) refers to main.o(i.main) for main
    uldiv.o(.text) refers to llushr.o(.text) for __aeabi_llsr
    uldiv.o(.text) refers to llshl.o(.text) for __aeabi_llsl
    errno.o(i.__aeabi_errno_addr) refers to errno.o(.data) for .data
    errno.o(i.__read_errno) refers to errno.o(.data) for .data
    errno.o(i.__set_errno) refers to errno.o(.data) for .data
    strtod.o(.text) refers to scanf_fp.o(.text) for _scanf_real
    strtod.o(.text) refers to _sgetc.o(.text) for _sgetc
    strtod.o(.text) refers to isspace_c.o(.text) for isspace
    depilogue.o(.text) refers to llshl.o(.text) for __aeabi_llsl
    depilogue.o(.text) refers to llushr.o(.text) for __aeabi_llsr
    dfixul.o(.text) refers to llushr.o(.text) for __aeabi_llsr
    dfixul.o(.text) refers to llshl.o(.text) for __aeabi_llsl
    init.o(.text) refers to entry5.o(.ARM.Collect$$$$00000004) for __main_after_scatterload
    isspace_c.o(.text) refers to ctype_c.o(.text) for __ctype_lookup
    scanf_fp.o(.text) refers (Special) to iusefp.o(.text) for __I$use$fp
    scanf_fp.o(.text) refers to dfltul.o(.text) for __aeabi_ul2d
    scanf_fp.o(.text) refers to dmul.o(.text) for __aeabi_dmul
    scanf_fp.o(.text) refers to ddiv.o(.text) for __aeabi_ddiv
    scanf_fp.o(.text) refers to scanf_fp.o(i._is_digit) for _is_digit
    scanf_fp.o(.text) refers to d2f.o(.text) for __aeabi_d2f
    dsqrt.o(.text) refers to llushr.o(.text) for __aeabi_llsr
    dsqrt.o(.text) refers to depilogue.o(.text) for _double_round
    ctype_c.o(.text) refers to ctype_c.o(.constdata) for .constdata
    dfltul.o(.text) refers to depilogue.o(.text) for _double_epilogue
    scanf_fp.o(i._is_digit) refers (Special) to iusefp.o(.text) for __I$use$fp


==============================================================================

Removing Unused input sections from the image.

    Removing app_test.o(i.Test_Main), (204 bytes).
    Removing app_test.o(.conststring), (5 bytes).
    Removing app_test.o(.data), (44 bytes).
    Removing app_key.o(i.Key_Clear), (32 bytes).
    Removing app_key.o(i.Key_Get), (56 bytes).
    Removing app_key.o(i.Key_Main), (292 bytes).
    Removing app_key.o(i.Key_Now_Get), (180 bytes).
    Removing app_key.o(i.Key_Scan_Main), (76 bytes).
    Removing app_key.o(i.Key_Start), (36 bytes).
    Removing app_key.o(.bss), (18 bytes).
    Removing app_key.o(.conststring), (13 bytes).
    Removing app_key.o(.data), (73 bytes).
    Removing app_tracking.o(i.EasyPID), (160 bytes).
    Removing app_tracking.o(i.SmallCar_ChannelScan_Main), (852 bytes).
    Removing app_tracking.o(i.Wind_Turn_PID), (48 bytes).
    Removing app_tracking.o(i.quick_sort), (120 bytes).
    Removing userpid.o(i.my_pidIncrement), (368 bytes).
    Removing userpid.o(i.my_pidLocation), (308 bytes).
    Removing userpid.o(i.pidInit), (104 bytes).
    Removing userpid.o(i.pidLocation), (308 bytes).
    Removing userpid.o(.data), (24 bytes).
    Removing os_startfile.o(i.OSdelay_s), (18 bytes).
    Removing os_manage.o(i.OSRunning_Break), (20 bytes).
    Removing os_manage.o(i.OSRunning_Continue), (20 bytes).
    Removing os_manage.o(i.OSTask_Alter), (84 bytes).
    Removing os_manage.o(i.OSTask_Remove), (48 bytes).
    Removing os_manage.o(i.OSTask_State), (52 bytes).
    Removing os_ui.o(i.OS_Num_Show), (42 bytes).
    Removing os_run.o(i.OSThread_5), (176 bytes).
    Removing os_run.o(i.OSThread_7), (176 bytes).
    Removing sys.o(.emb_text), (6 bytes).
    Removing sys.o(i.INTX_DISABLE), (4 bytes).
    Removing sys.o(i.INTX_ENABLE), (4 bytes).
    Removing sys.o(i.WFI_SET), (4 bytes).
    Removing drive_smallcar.o(i.SmallCar_Left_Control), (76 bytes).
    Removing drive_smallcar.o(i.SmallCar_Right_Control), (76 bytes).
    Removing drive_gpio.o(i.GPIO_Relay_Init), (52 bytes).
    Removing drive_gpio.o(i.GPIO_Test_Init), (48 bytes).
    Removing drive_oled.o(i.LcdDisplay_Chinese), (62 bytes).
    Removing drive_oled.o(i.LcdDisplay_char), (58 bytes).
    Removing drive_oled.o(i.OLED_BMP), (136 bytes).
    Removing drive_interrupt.o(.data), (16 bytes).
    Removing drive_dac.o(i.DAC1_Init), (100 bytes).
    Removing drive_dac.o(i.DAC1_Set), (24 bytes).
    Removing drive_mpu6050.o(i.MPU6050_getDeviceID), (24 bytes).
    Removing drive_mpu6050.o(i.MPU6050_newValues), (500 bytes).
    Removing drive_mpu6050.o(i.MPU6050_testConnection), (18 bytes).
    Removing drive_mpu6050.o(i.Read_Temperature), (128 bytes).
    Removing drive_mpu6050.o(.bss), (146 bytes).
    Removing drive_ioi2c.o(i.IICreadBytes), (100 bytes).
    Removing inv_mpu_dmp_motion_driver.o(i.dmp_get_enabled_features), (16 bytes).
    Removing inv_mpu_dmp_motion_driver.o(i.dmp_get_fifo_rate), (16 bytes).
    Removing inv_mpu_dmp_motion_driver.o(i.dmp_get_pedometer_step_count), (66 bytes).
    Removing inv_mpu_dmp_motion_driver.o(i.dmp_get_pedometer_walk_time), (72 bytes).
    Removing inv_mpu_dmp_motion_driver.o(i.dmp_register_android_orient_cb), (16 bytes).
    Removing inv_mpu_dmp_motion_driver.o(i.dmp_register_tap_cb), (16 bytes).
    Removing inv_mpu_dmp_motion_driver.o(i.dmp_set_interrupt_mode), (92 bytes).
    Removing inv_mpu_dmp_motion_driver.o(i.dmp_set_pedometer_step_count), (42 bytes).
    Removing inv_mpu_dmp_motion_driver.o(i.dmp_set_pedometer_walk_time), (48 bytes).
    Removing inv_mpu.o(i.mpu_get_accel_reg), (116 bytes).
    Removing inv_mpu.o(i.mpu_get_compass_fsr), (8 bytes).
    Removing inv_mpu.o(i.mpu_get_compass_reg), (8 bytes).
    Removing inv_mpu.o(i.mpu_get_compass_sample_rate), (10 bytes).
    Removing inv_mpu.o(i.mpu_get_dmp_state), (20 bytes).
    Removing inv_mpu.o(i.mpu_get_gyro_reg), (116 bytes).
    Removing inv_mpu.o(i.mpu_get_int_status), (68 bytes).
    Removing inv_mpu.o(i.mpu_get_power_state), (28 bytes).
    Removing inv_mpu.o(i.mpu_get_temperature), (160 bytes).
    Removing inv_mpu.o(i.mpu_lp_motion_interrupt), (516 bytes).
    Removing inv_mpu.o(i.mpu_read_fifo), (504 bytes).
    Removing inv_mpu.o(i.mpu_read_reg), (72 bytes).
    Removing inv_mpu.o(i.mpu_reg_dump), (76 bytes).
    Removing inv_mpu.o(i.mpu_set_accel_bias), (384 bytes).
    Removing inv_mpu.o(i.mpu_set_compass_sample_rate), (8 bytes).
    Removing inv_mpu.o(i.mpu_set_int_level), (16 bytes).
    Removing drive_usart.o(i._sys_exit), (6 bytes).
    Removing drive_usart.o(i.uart_init), (164 bytes).
    Removing adc.o(i.Adc_Init), (288 bytes).
    Removing adc.o(i.DMA_Configuration), (136 bytes).
    Removing adc.o(.data), (1 bytes).
    Removing my_pwm.o(i.LeftA_PWM), (20 bytes).
    Removing my_pwm.o(i.LeftB_PWM), (20 bytes).
    Removing my_tim.o(i.TIM6_Int_Init), (96 bytes).
    Removing my_tim.o(i.TIM7_Int_Init), (96 bytes).
    Removing my_tim.o(i.TIM8_Configuration), (104 bytes).
    Removing my_tim.o(i.TimeDelayMs), (64 bytes).
    Removing my_tim.o(.data), (9 bytes).
    Removing pid.o(i.PIDCalc), (54 bytes).
    Removing pid.o(i.PIDInit), (26 bytes).
    Removing pid.o(i.PID_increa), (138 bytes).
    Removing pid.o(i.PID_init), (34 bytes).
    Removing pid.o(.bss), (28 bytes).
    Removing startup_stm32f10x_hd.o(HEAP), (512 bytes).
    Removing system_stm32f10x.o(i.SystemCoreClockUpdate), (164 bytes).
    Removing system_stm32f10x.o(.data), (20 bytes).
    Removing core_cm3.o(.emb_text), (32 bytes).
    Removing misc.o(i.NVIC_SetVectorTable), (20 bytes).
    Removing misc.o(i.NVIC_SystemLPConfig), (32 bytes).
    Removing misc.o(i.SysTick_CLKSourceConfig), (40 bytes).
    Removing stm32f10x_rcc.o(i.RCC_AHBPeriphClockCmd), (32 bytes).
    Removing stm32f10x_rcc.o(i.RCC_APB1PeriphResetCmd), (32 bytes).
    Removing stm32f10x_rcc.o(i.RCC_AdjustHSICalibrationValue), (24 bytes).
    Removing stm32f10x_rcc.o(i.RCC_BackupResetCmd), (12 bytes).
    Removing stm32f10x_rcc.o(i.RCC_ClearFlag), (20 bytes).
    Removing stm32f10x_rcc.o(i.RCC_ClearITPendingBit), (12 bytes).
    Removing stm32f10x_rcc.o(i.RCC_ClockSecuritySystemCmd), (12 bytes).
    Removing stm32f10x_rcc.o(i.RCC_DeInit), (76 bytes).
    Removing stm32f10x_rcc.o(i.RCC_GetClocksFreq), (212 bytes).
    Removing stm32f10x_rcc.o(i.RCC_GetFlagStatus), (60 bytes).
    Removing stm32f10x_rcc.o(i.RCC_GetITStatus), (24 bytes).
    Removing stm32f10x_rcc.o(i.RCC_GetSYSCLKSource), (16 bytes).
    Removing stm32f10x_rcc.o(i.RCC_HCLKConfig), (24 bytes).
    Removing stm32f10x_rcc.o(i.RCC_HSEConfig), (76 bytes).
    Removing stm32f10x_rcc.o(i.RCC_HSICmd), (12 bytes).
    Removing stm32f10x_rcc.o(i.RCC_ITConfig), (32 bytes).
    Removing stm32f10x_rcc.o(i.RCC_LSEConfig), (52 bytes).
    Removing stm32f10x_rcc.o(i.RCC_LSICmd), (12 bytes).
    Removing stm32f10x_rcc.o(i.RCC_MCOConfig), (12 bytes).
    Removing stm32f10x_rcc.o(i.RCC_PCLK1Config), (24 bytes).
    Removing stm32f10x_rcc.o(i.RCC_PCLK2Config), (24 bytes).
    Removing stm32f10x_rcc.o(i.RCC_PLLCmd), (12 bytes).
    Removing stm32f10x_rcc.o(i.RCC_PLLConfig), (28 bytes).
    Removing stm32f10x_rcc.o(i.RCC_RTCCLKCmd), (12 bytes).
    Removing stm32f10x_rcc.o(i.RCC_RTCCLKConfig), (16 bytes).
    Removing stm32f10x_rcc.o(i.RCC_SYSCLKConfig), (24 bytes).
    Removing stm32f10x_rcc.o(i.RCC_USBCLKConfig), (12 bytes).
    Removing stm32f10x_rcc.o(i.RCC_WaitForHSEStartUp), (56 bytes).
    Removing stm32f10x_rcc.o(.data), (20 bytes).
    Removing stm32f10x_adc.o(i.ADC_AnalogWatchdogCmd), (20 bytes).
    Removing stm32f10x_adc.o(i.ADC_AnalogWatchdogSingleChannelConfig), (16 bytes).
    Removing stm32f10x_adc.o(i.ADC_AnalogWatchdogThresholdsConfig), (6 bytes).
    Removing stm32f10x_adc.o(i.ADC_AutoInjectedConvCmd), (22 bytes).
    Removing stm32f10x_adc.o(i.ADC_ClearFlag), (6 bytes).
    Removing stm32f10x_adc.o(i.ADC_ClearITPendingBit), (10 bytes).
    Removing stm32f10x_adc.o(i.ADC_DMACmd), (22 bytes).
    Removing stm32f10x_adc.o(i.ADC_DiscModeChannelCountConfig), (24 bytes).
    Removing stm32f10x_adc.o(i.ADC_DiscModeCmd), (22 bytes).
    Removing stm32f10x_adc.o(i.ADC_ExternalTrigConvCmd), (22 bytes).
    Removing stm32f10x_adc.o(i.ADC_ExternalTrigInjectedConvCmd), (22 bytes).
    Removing stm32f10x_adc.o(i.ADC_ExternalTrigInjectedConvConfig), (16 bytes).
    Removing stm32f10x_adc.o(i.ADC_GetDualModeConversionValue), (12 bytes).
    Removing stm32f10x_adc.o(i.ADC_GetITStatus), (36 bytes).
    Removing stm32f10x_adc.o(i.ADC_GetInjectedConversionValue), (28 bytes).
    Removing stm32f10x_adc.o(i.ADC_GetSoftwareStartConvStatus), (20 bytes).
    Removing stm32f10x_adc.o(i.ADC_GetSoftwareStartInjectedConvCmdStatus), (20 bytes).
    Removing stm32f10x_adc.o(i.ADC_ITConfig), (24 bytes).
    Removing stm32f10x_adc.o(i.ADC_InjectedChannelConfig), (130 bytes).
    Removing stm32f10x_adc.o(i.ADC_InjectedDiscModeCmd), (22 bytes).
    Removing stm32f10x_adc.o(i.ADC_InjectedSequencerLengthConfig), (24 bytes).
    Removing stm32f10x_adc.o(i.ADC_SetInjectedOffset), (20 bytes).
    Removing stm32f10x_adc.o(i.ADC_SoftwareStartInjectedConvCmd), (22 bytes).
    Removing stm32f10x_adc.o(i.ADC_StructInit), (18 bytes).
    Removing stm32f10x_adc.o(i.ADC_TempSensorVrefintCmd), (36 bytes).
    Removing stm32f10x_gpio.o(i.GPIO_AFIODeInit), (20 bytes).
    Removing stm32f10x_gpio.o(i.GPIO_DeInit), (200 bytes).
    Removing stm32f10x_gpio.o(i.GPIO_ETH_MediaInterfaceConfig), (12 bytes).
    Removing stm32f10x_gpio.o(i.GPIO_EventOutputCmd), (12 bytes).
    Removing stm32f10x_gpio.o(i.GPIO_EventOutputConfig), (32 bytes).
    Removing stm32f10x_gpio.o(i.GPIO_PinLockConfig), (18 bytes).
    Removing stm32f10x_gpio.o(i.GPIO_PinRemapConfig), (144 bytes).
    Removing stm32f10x_gpio.o(i.GPIO_ReadInputData), (8 bytes).
    Removing stm32f10x_gpio.o(i.GPIO_ReadOutputData), (8 bytes).
    Removing stm32f10x_gpio.o(i.GPIO_ReadOutputDataBit), (18 bytes).
    Removing stm32f10x_gpio.o(i.GPIO_StructInit), (16 bytes).
    Removing stm32f10x_gpio.o(i.GPIO_Write), (4 bytes).
    Removing stm32f10x_exti.o(i.EXTI_ClearFlag), (12 bytes).
    Removing stm32f10x_exti.o(i.EXTI_DeInit), (36 bytes).
    Removing stm32f10x_exti.o(i.EXTI_GenerateSWInterrupt), (16 bytes).
    Removing stm32f10x_exti.o(i.EXTI_GetFlagStatus), (24 bytes).
    Removing stm32f10x_exti.o(i.EXTI_StructInit), (16 bytes).
    Removing stm32f10x_tim.o(i.TI1_Config), (128 bytes).
    Removing stm32f10x_tim.o(i.TI2_Config), (152 bytes).
    Removing stm32f10x_tim.o(i.TI3_Config), (144 bytes).
    Removing stm32f10x_tim.o(i.TI4_Config), (152 bytes).
    Removing stm32f10x_tim.o(i.TIM_BDTRConfig), (32 bytes).
    Removing stm32f10x_tim.o(i.TIM_BDTRStructInit), (18 bytes).
    Removing stm32f10x_tim.o(i.TIM_CCPreloadControl), (24 bytes).
    Removing stm32f10x_tim.o(i.TIM_CCxCmd), (30 bytes).
    Removing stm32f10x_tim.o(i.TIM_CCxNCmd), (30 bytes).
    Removing stm32f10x_tim.o(i.TIM_ClearFlag), (6 bytes).
    Removing stm32f10x_tim.o(i.TIM_ClearOC1Ref), (18 bytes).
    Removing stm32f10x_tim.o(i.TIM_ClearOC2Ref), (24 bytes).
    Removing stm32f10x_tim.o(i.TIM_ClearOC3Ref), (18 bytes).
    Removing stm32f10x_tim.o(i.TIM_ClearOC4Ref), (24 bytes).
    Removing stm32f10x_tim.o(i.TIM_CounterModeConfig), (18 bytes).
    Removing stm32f10x_tim.o(i.TIM_DMACmd), (18 bytes).
    Removing stm32f10x_tim.o(i.TIM_DMAConfig), (10 bytes).
    Removing stm32f10x_tim.o(i.TIM_DeInit), (488 bytes).
    Removing stm32f10x_tim.o(i.TIM_ETRClockMode1Config), (54 bytes).
    Removing stm32f10x_tim.o(i.TIM_ETRClockMode2Config), (32 bytes).
    Removing stm32f10x_tim.o(i.TIM_ETRConfig), (28 bytes).
    Removing stm32f10x_tim.o(i.TIM_EncoderInterfaceConfig), (66 bytes).
    Removing stm32f10x_tim.o(i.TIM_ForcedOC1Config), (18 bytes).
    Removing stm32f10x_tim.o(i.TIM_ForcedOC2Config), (26 bytes).
    Removing stm32f10x_tim.o(i.TIM_ForcedOC3Config), (18 bytes).
    Removing stm32f10x_tim.o(i.TIM_ForcedOC4Config), (26 bytes).
    Removing stm32f10x_tim.o(i.TIM_GenerateEvent), (4 bytes).
    Removing stm32f10x_tim.o(i.TIM_GetCapture1), (6 bytes).
    Removing stm32f10x_tim.o(i.TIM_GetCapture2), (6 bytes).
    Removing stm32f10x_tim.o(i.TIM_GetCapture3), (6 bytes).
    Removing stm32f10x_tim.o(i.TIM_GetCapture4), (8 bytes).
    Removing stm32f10x_tim.o(i.TIM_GetFlagStatus), (18 bytes).
    Removing stm32f10x_tim.o(i.TIM_GetPrescaler), (6 bytes).
    Removing stm32f10x_tim.o(i.TIM_ICInit), (172 bytes).
    Removing stm32f10x_tim.o(i.TIM_ICStructInit), (18 bytes).
    Removing stm32f10x_tim.o(i.TIM_ITRxExternalClockConfig), (24 bytes).
    Removing stm32f10x_tim.o(i.TIM_InternalClockConfig), (12 bytes).
    Removing stm32f10x_tim.o(i.TIM_OC1FastConfig), (18 bytes).
    Removing stm32f10x_tim.o(i.TIM_OC1NPolarityConfig), (18 bytes).
    Removing stm32f10x_tim.o(i.TIM_OC1PolarityConfig), (18 bytes).
    Removing stm32f10x_tim.o(i.TIM_OC2FastConfig), (26 bytes).
    Removing stm32f10x_tim.o(i.TIM_OC2NPolarityConfig), (26 bytes).
    Removing stm32f10x_tim.o(i.TIM_OC2PolarityConfig), (26 bytes).
    Removing stm32f10x_tim.o(i.TIM_OC3FastConfig), (18 bytes).
    Removing stm32f10x_tim.o(i.TIM_OC3Init), (160 bytes).
    Removing stm32f10x_tim.o(i.TIM_OC3NPolarityConfig), (26 bytes).
    Removing stm32f10x_tim.o(i.TIM_OC3PolarityConfig), (26 bytes).
    Removing stm32f10x_tim.o(i.TIM_OC3PreloadConfig), (18 bytes).
    Removing stm32f10x_tim.o(i.TIM_OC4FastConfig), (26 bytes).
    Removing stm32f10x_tim.o(i.TIM_OC4Init), (124 bytes).
    Removing stm32f10x_tim.o(i.TIM_OC4PolarityConfig), (26 bytes).
    Removing stm32f10x_tim.o(i.TIM_OC4PreloadConfig), (26 bytes).
    Removing stm32f10x_tim.o(i.TIM_OCStructInit), (20 bytes).
    Removing stm32f10x_tim.o(i.TIM_PWMIConfig), (124 bytes).
    Removing stm32f10x_tim.o(i.TIM_PrescalerConfig), (6 bytes).
    Removing stm32f10x_tim.o(i.TIM_SelectCCDMA), (24 bytes).
    Removing stm32f10x_tim.o(i.TIM_SelectCOM), (24 bytes).
    Removing stm32f10x_tim.o(i.TIM_SelectHallSensor), (24 bytes).
    Removing stm32f10x_tim.o(i.TIM_SelectInputTrigger), (18 bytes).
    Removing stm32f10x_tim.o(i.TIM_SelectMasterSlaveMode), (18 bytes).
    Removing stm32f10x_tim.o(i.TIM_SelectOCxM), (82 bytes).
    Removing stm32f10x_tim.o(i.TIM_SelectOnePulseMode), (18 bytes).
    Removing stm32f10x_tim.o(i.TIM_SelectOutputTrigger), (18 bytes).
    Removing stm32f10x_tim.o(i.TIM_SelectSlaveMode), (18 bytes).
    Removing stm32f10x_tim.o(i.TIM_SetAutoreload), (4 bytes).
    Removing stm32f10x_tim.o(i.TIM_SetClockDivision), (18 bytes).
    Removing stm32f10x_tim.o(i.TIM_SetCompare1), (4 bytes).
    Removing stm32f10x_tim.o(i.TIM_SetCompare3), (4 bytes).
    Removing stm32f10x_tim.o(i.TIM_SetCompare4), (6 bytes).
    Removing stm32f10x_tim.o(i.TIM_SetCounter), (4 bytes).
    Removing stm32f10x_tim.o(i.TIM_SetIC1Prescaler), (18 bytes).
    Removing stm32f10x_tim.o(i.TIM_SetIC2Prescaler), (26 bytes).
    Removing stm32f10x_tim.o(i.TIM_SetIC3Prescaler), (18 bytes).
    Removing stm32f10x_tim.o(i.TIM_SetIC4Prescaler), (26 bytes).
    Removing stm32f10x_tim.o(i.TIM_TIxExternalClockConfig), (62 bytes).
    Removing stm32f10x_tim.o(i.TIM_TimeBaseStructInit), (18 bytes).
    Removing stm32f10x_tim.o(i.TIM_UpdateDisableConfig), (24 bytes).
    Removing stm32f10x_tim.o(i.TIM_UpdateRequestConfig), (24 bytes).
    Removing stm32f10x_dac.o(i.DAC_Cmd), (40 bytes).
    Removing stm32f10x_dac.o(i.DAC_DMACmd), (44 bytes).
    Removing stm32f10x_dac.o(i.DAC_DeInit), (22 bytes).
    Removing stm32f10x_dac.o(i.DAC_DualSoftwareTriggerCmd), (36 bytes).
    Removing stm32f10x_dac.o(i.DAC_GetDataOutputValue), (36 bytes).
    Removing stm32f10x_dac.o(i.DAC_Init), (52 bytes).
    Removing stm32f10x_dac.o(i.DAC_SetChannel1Data), (32 bytes).
    Removing stm32f10x_dac.o(i.DAC_SetChannel2Data), (32 bytes).
    Removing stm32f10x_dac.o(i.DAC_SetDualChannelData), (36 bytes).
    Removing stm32f10x_dac.o(i.DAC_SoftwareTriggerCmd), (44 bytes).
    Removing stm32f10x_dac.o(i.DAC_StructInit), (12 bytes).
    Removing stm32f10x_dac.o(i.DAC_WaveGenerationCmd), (40 bytes).
    Removing stm32f10x_dma.o(i.DMA_ClearFlag), (28 bytes).
    Removing stm32f10x_dma.o(i.DMA_Cmd), (24 bytes).
    Removing stm32f10x_dma.o(i.DMA_DeInit), (332 bytes).
    Removing stm32f10x_dma.o(i.DMA_GetCurrDataCounter), (8 bytes).
    Removing stm32f10x_dma.o(i.DMA_GetFlagStatus), (44 bytes).
    Removing stm32f10x_dma.o(i.DMA_GetITStatus), (44 bytes).
    Removing stm32f10x_dma.o(i.DMA_ITConfig), (18 bytes).
    Removing stm32f10x_dma.o(i.DMA_Init), (60 bytes).
    Removing stm32f10x_dma.o(i.DMA_SetCurrDataCounter), (4 bytes).
    Removing stm32f10x_dma.o(i.DMA_StructInit), (26 bytes).
    Removing stm32f10x_usart.o(i.USART_ClearFlag), (18 bytes).
    Removing stm32f10x_usart.o(i.USART_ClearITPendingBit), (30 bytes).
    Removing stm32f10x_usart.o(i.USART_ClockInit), (34 bytes).
    Removing stm32f10x_usart.o(i.USART_ClockStructInit), (12 bytes).
    Removing stm32f10x_usart.o(i.USART_Cmd), (24 bytes).
    Removing stm32f10x_usart.o(i.USART_DMACmd), (18 bytes).
    Removing stm32f10x_usart.o(i.USART_DeInit), (156 bytes).
    Removing stm32f10x_usart.o(i.USART_GetFlagStatus), (26 bytes).
    Removing stm32f10x_usart.o(i.USART_HalfDuplexCmd), (24 bytes).
    Removing stm32f10x_usart.o(i.USART_ITConfig), (74 bytes).
    Removing stm32f10x_usart.o(i.USART_Init), (216 bytes).
    Removing stm32f10x_usart.o(i.USART_IrDACmd), (24 bytes).
    Removing stm32f10x_usart.o(i.USART_IrDAConfig), (18 bytes).
    Removing stm32f10x_usart.o(i.USART_LINBreakDetectLengthConfig), (18 bytes).
    Removing stm32f10x_usart.o(i.USART_LINCmd), (24 bytes).
    Removing stm32f10x_usart.o(i.USART_OneBitMethodCmd), (24 bytes).
    Removing stm32f10x_usart.o(i.USART_OverSampling8Cmd), (22 bytes).
    Removing stm32f10x_usart.o(i.USART_ReceiverWakeUpCmd), (24 bytes).
    Removing stm32f10x_usart.o(i.USART_SendBreak), (10 bytes).
    Removing stm32f10x_usart.o(i.USART_SendData), (8 bytes).
    Removing stm32f10x_usart.o(i.USART_SetAddress), (18 bytes).
    Removing stm32f10x_usart.o(i.USART_SetGuardTime), (16 bytes).
    Removing stm32f10x_usart.o(i.USART_SetPrescaler), (16 bytes).
    Removing stm32f10x_usart.o(i.USART_SmartCardCmd), (24 bytes).
    Removing stm32f10x_usart.o(i.USART_SmartCardNACKCmd), (24 bytes).
    Removing stm32f10x_usart.o(i.USART_StructInit), (24 bytes).
    Removing stm32f10x_usart.o(i.USART_WakeUpConfig), (18 bytes).

297 unused section(s) (total 17405 bytes) removed from the image.

==============================================================================

Image Symbol Table

    Local Symbols

    Symbol Name                              Value     Ov Type        Size  Object(Section)

    ../clib/../cmprslib/zerorunl2.c          0x00000000   Number         0  __dczerorl2.o ABSOLUTE
    ../clib/microlib/ctype/ctype.c           0x00000000   Number         0  ctype_c.o ABSOLUTE
    ../clib/microlib/ctype/ctype.c           0x00000000   Number         0  isspace_c.o ABSOLUTE
    ../clib/microlib/division.c              0x00000000   Number         0  uidiv.o ABSOLUTE
    ../clib/microlib/division.c              0x00000000   Number         0  uldiv.o ABSOLUTE
    ../clib/microlib/division.c              0x00000000   Number         0  ldiv.o ABSOLUTE
    ../clib/microlib/errno.c                 0x00000000   Number         0  errno.o ABSOLUTE
    ../clib/microlib/init/entry.s            0x00000000   Number         0  entry10b.o ABSOLUTE
    ../clib/microlib/init/entry.s            0x00000000   Number         0  entry9a.o ABSOLUTE
    ../clib/microlib/init/entry.s            0x00000000   Number         0  entry9b.o ABSOLUTE
    ../clib/microlib/init/entry.s            0x00000000   Number         0  entry10a.o ABSOLUTE
    ../clib/microlib/init/entry.s            0x00000000   Number         0  entry8a.o ABSOLUTE
    ../clib/microlib/init/entry.s            0x00000000   Number         0  entry5.o ABSOLUTE
    ../clib/microlib/init/entry.s            0x00000000   Number         0  entry.o ABSOLUTE
    ../clib/microlib/init/entry.s            0x00000000   Number         0  entry11b.o ABSOLUTE
    ../clib/microlib/init/entry.s            0x00000000   Number         0  entry11a.o ABSOLUTE
    ../clib/microlib/init/entry.s            0x00000000   Number         0  entry8b.o ABSOLUTE
    ../clib/microlib/init/entry.s            0x00000000   Number         0  entry7b.o ABSOLUTE
    ../clib/microlib/init/entry.s            0x00000000   Number         0  entry7a.o ABSOLUTE
    ../clib/microlib/init/entry.s            0x00000000   Number         0  entry2.o ABSOLUTE
    ../clib/microlib/longlong.c              0x00000000   Number         0  llsshr.o ABSOLUTE
    ../clib/microlib/longlong.c              0x00000000   Number         0  llshl.o ABSOLUTE
    ../clib/microlib/longlong.c              0x00000000   Number         0  llushr.o ABSOLUTE
    ../clib/microlib/malloc/malloc.c         0x00000000   Number         0  mallocra.o ABSOLUTE
    ../clib/microlib/malloc/malloc.c         0x00000000   Number         0  malloca.o ABSOLUTE
    ../clib/microlib/malloc/malloc.c         0x00000000   Number         0  mallocr.o ABSOLUTE
    ../clib/microlib/malloc/malloc.c         0x00000000   Number         0  malloc.o ABSOLUTE
    ../clib/microlib/malloc/mvars.c          0x00000000   Number         0  mvars.o ABSOLUTE
    ../clib/microlib/printf/printf.c         0x00000000   Number         0  printf0.o ABSOLUTE
    ../clib/microlib/printf/printf.c         0x00000000   Number         0  printf8.o ABSOLUTE
    ../clib/microlib/printf/printf.c         0x00000000   Number         0  printfa.o ABSOLUTE
    ../clib/microlib/printf/printf.c         0x00000000   Number         0  printf7.o ABSOLUTE
    ../clib/microlib/printf/printf.c         0x00000000   Number         0  printf6.o ABSOLUTE
    ../clib/microlib/printf/printf.c         0x00000000   Number         0  printf5.o ABSOLUTE
    ../clib/microlib/printf/printf.c         0x00000000   Number         0  printf4.o ABSOLUTE
    ../clib/microlib/printf/printf.c         0x00000000   Number         0  printf1.o ABSOLUTE
    ../clib/microlib/printf/printf.c         0x00000000   Number         0  printf2.o ABSOLUTE
    ../clib/microlib/printf/printf.c         0x00000000   Number         0  printf3.o ABSOLUTE
    ../clib/microlib/printf/printf.c         0x00000000   Number         0  printfb.o ABSOLUTE
    ../clib/microlib/printf/stubs.s          0x00000000   Number         0  stubs.o ABSOLUTE
    ../clib/microlib/string/memcmp.c         0x00000000   Number         0  memcmp.o ABSOLUTE
    ../clib/microlib/string/memcpy.c         0x00000000   Number         0  memcpya.o ABSOLUTE
    ../clib/microlib/string/memcpy.c         0x00000000   Number         0  memcpyb.o ABSOLUTE
    ../clib/microlib/string/memset.c         0x00000000   Number         0  memseta.o ABSOLUTE
    ../clib/microlib/string/strlen.c         0x00000000   Number         0  strlen.o ABSOLUTE
    ../clib/microlib/stubs.s                 0x00000000   Number         0  useno.o ABSOLUTE
    ../clib/microlib/stubs.s                 0x00000000   Number         0  iusefp.o ABSOLUTE
    ../clib/scanf.c                          0x00000000   Number         0  scanf_fp.o ABSOLUTE
    ../clib/scanf.c                          0x00000000   Number         0  _sgetc.o ABSOLUTE
    ../clib/scanf.c                          0x00000000   Number         0  strtod.o ABSOLUTE
    ../fplib/microlib/d2f.c                  0x00000000   Number         0  d2f.o ABSOLUTE
    ../fplib/microlib/f2d.c                  0x00000000   Number         0  f2d.o ABSOLUTE
    ../fplib/microlib/fpadd.c                0x00000000   Number         0  fadd.o ABSOLUTE
    ../fplib/microlib/fpadd.c                0x00000000   Number         0  dadd.o ABSOLUTE
    ../fplib/microlib/fpdiv.c                0x00000000   Number         0  ddiv.o ABSOLUTE
    ../fplib/microlib/fpdiv.c                0x00000000   Number         0  fdiv.o ABSOLUTE
    ../fplib/microlib/fpepilogue.c           0x00000000   Number         0  depilogue.o ABSOLUTE
    ../fplib/microlib/fpepilogue.c           0x00000000   Number         0  fepilogue.o ABSOLUTE
    ../fplib/microlib/fpfix.c                0x00000000   Number         0  dfixul.o ABSOLUTE
    ../fplib/microlib/fpfix.c                0x00000000   Number         0  ffixui.o ABSOLUTE
    ../fplib/microlib/fpfix.c                0x00000000   Number         0  dfixui.o ABSOLUTE
    ../fplib/microlib/fpfix.c                0x00000000   Number         0  dfixi.o ABSOLUTE
    ../fplib/microlib/fpfix.c                0x00000000   Number         0  ffixi.o ABSOLUTE
    ../fplib/microlib/fpflt.c                0x00000000   Number         0  dfltul.o ABSOLUTE
    ../fplib/microlib/fpflt.c                0x00000000   Number         0  dfltui.o ABSOLUTE
    ../fplib/microlib/fpflt.c                0x00000000   Number         0  dflti.o ABSOLUTE
    ../fplib/microlib/fpflt.c                0x00000000   Number         0  ffltui.o ABSOLUTE
    ../fplib/microlib/fpflt.c                0x00000000   Number         0  fflti.o ABSOLUTE
    ../fplib/microlib/fpmul.c                0x00000000   Number         0  dmul.o ABSOLUTE
    ../fplib/microlib/fpmul.c                0x00000000   Number         0  fmul.o ABSOLUTE
    ../fplib/microlib/fpscalb.c              0x00000000   Number         0  dscalb.o ABSOLUTE
    ../fplib/microlib/fpsqrt.c               0x00000000   Number         0  dsqrt.o ABSOLUTE
    ../mathlib/asin.c                        0x00000000   Number         0  asin_x.o ABSOLUTE
    ../mathlib/asin.c                        0x00000000   Number         0  asin.o ABSOLUTE
    ../mathlib/atan.c                        0x00000000   Number         0  atan_x.o ABSOLUTE
    ../mathlib/atan.c                        0x00000000   Number         0  atan.o ABSOLUTE
    ../mathlib/atan2.c                       0x00000000   Number         0  atan2.o ABSOLUTE
    ../mathlib/atan2.c                       0x00000000   Number         0  atan2_x.o ABSOLUTE
    ../mathlib/atof.c                        0x00000000   Number         0  atof.o ABSOLUTE
    ../mathlib/cos.c                         0x00000000   Number         0  cos_x.o ABSOLUTE
    ../mathlib/cos.c                         0x00000000   Number         0  cos.o ABSOLUTE
    ../mathlib/cos_i.c                       0x00000000   Number         0  cos_i.o ABSOLUTE
    ../mathlib/dunder.c                      0x00000000   Number         0  dunder.o ABSOLUTE
    ../mathlib/fpclassify.c                  0x00000000   Number         0  fpclassify.o ABSOLUTE
    ../mathlib/poly.c                        0x00000000   Number         0  poly.o ABSOLUTE
    ../mathlib/pow.c                         0x00000000   Number         0  pow.o ABSOLUTE
    ../mathlib/pow.c                         0x00000000   Number         0  pow_x.o ABSOLUTE
    ../mathlib/qnan.c                        0x00000000   Number         0  qnan.o ABSOLUTE
    ../mathlib/rred.c                        0x00000000   Number         0  rred.o ABSOLUTE
    ../mathlib/sin_i.c                       0x00000000   Number         0  sin_i_x.o ABSOLUTE
    ../mathlib/sin_i.c                       0x00000000   Number         0  sin_i.o ABSOLUTE
    ../mathlib/sqrt.c                        0x00000000   Number         0  sqrt.o ABSOLUTE
    ../mathlib/sqrt.c                        0x00000000   Number         0  sqrt_x.o ABSOLUTE
    _01_App\App_Key.c                        0x00000000   Number         0  app_key.o ABSOLUTE
    _01_App\App_LED.c                        0x00000000   Number         0  app_led.o ABSOLUTE
    _01_App\App_SmallCar.c                   0x00000000   Number         0  app_smallcar.o ABSOLUTE
    _01_App\App_Test.c                       0x00000000   Number         0  app_test.o ABSOLUTE
    _01_App\App_Tracking.c                   0x00000000   Number         0  app_tracking.o ABSOLUTE
    _01_App\App_WindCar.c                    0x00000000   Number         0  app_windcar.o ABSOLUTE
    _01_App\App_WindCar_Control.c            0x00000000   Number         0  app_windcar_control.o ABSOLUTE
    _02_User\main.c                          0x00000000   Number         0  main.o ABSOLUTE
    _02_User\userPID.c                       0x00000000   Number         0  userpid.o ABSOLUTE
    _03_OS\OS_Manage.c                       0x00000000   Number         0  os_manage.o ABSOLUTE
    _03_OS\OS_Run.c                          0x00000000   Number         0  os_run.o ABSOLUTE
    _03_OS\OS_StartFile.c                    0x00000000   Number         0  os_startfile.o ABSOLUTE
    _03_OS\OS_UI.c                           0x00000000   Number         0  os_ui.o ABSOLUTE
    _04_System\\sys.c                        0x00000000   Number         0  sys.o ABSOLUTE
    _04_System\sys.c                         0x00000000   Number         0  sys.o ABSOLUTE
    _05_Drive\Car\MPU6050.c                  0x00000000   Number         0  mpu6050.o ABSOLUTE
    _05_Drive\Car\My_PWM.c                   0x00000000   Number         0  my_pwm.o ABSOLUTE
    _05_Drive\Car\My_Tim.c                   0x00000000   Number         0  my_tim.o ABSOLUTE
    _05_Drive\Car\PID.c                      0x00000000   Number         0  pid.o ABSOLUTE
    _05_Drive\Car\adc.c                      0x00000000   Number         0  adc.o ABSOLUTE
    _05_Drive\DMP\filter.c                   0x00000000   Number         0  filter.o ABSOLUTE
    _05_Drive\DMP\inv_mpu.c                  0x00000000   Number         0  inv_mpu.o ABSOLUTE
    _05_Drive\DMP\inv_mpu_dmp_motion_driver.c 0x00000000   Number         0  inv_mpu_dmp_motion_driver.o ABSOLUTE
    _05_Drive\Drive_DAC.c                    0x00000000   Number         0  drive_dac.o ABSOLUTE
    _05_Drive\Drive_EXTI.c                   0x00000000   Number         0  drive_exti.o ABSOLUTE
    _05_Drive\Drive_GPIO.c                   0x00000000   Number         0  drive_gpio.o ABSOLUTE
    _05_Drive\Drive_IOI2C.c                  0x00000000   Number         0  drive_ioi2c.o ABSOLUTE
    _05_Drive\Drive_Interrupt.c              0x00000000   Number         0  drive_interrupt.o ABSOLUTE
    _05_Drive\Drive_MPU6050.c                0x00000000   Number         0  drive_mpu6050.o ABSOLUTE
    _05_Drive\Drive_OLED.c                   0x00000000   Number         0  drive_oled.o ABSOLUTE
    _05_Drive\Drive_SmallCar.c               0x00000000   Number         0  drive_smallcar.o ABSOLUTE
    _05_Drive\Drive_Timer.c                  0x00000000   Number         0  drive_timer.o ABSOLUTE
    _05_Drive\Drive_USART.c                  0x00000000   Number         0  drive_usart.o ABSOLUTE
    _05_Drive\Drive_WindCar_Control.c        0x00000000   Number         0  drive_windcar_control.o ABSOLUTE
    _06_Library\CMSIS\core_cm3.c             0x00000000   Number         0  core_cm3.o ABSOLUTE
    _06_Library\CMSIS\startup_stm32f10x_hd.s 0x00000000   Number         0  startup_stm32f10x_hd.o ABSOLUTE
    _06_Library\CMSIS\system_stm32f10x.c     0x00000000   Number         0  system_stm32f10x.o ABSOLUTE
    _06_Library\\CMSIS\\core_cm3.c           0x00000000   Number         0  core_cm3.o ABSOLUTE
    _06_Library\src\misc.c                   0x00000000   Number         0  misc.o ABSOLUTE
    _06_Library\src\stm32f10x_adc.c          0x00000000   Number         0  stm32f10x_adc.o ABSOLUTE
    _06_Library\src\stm32f10x_dac.c          0x00000000   Number         0  stm32f10x_dac.o ABSOLUTE
    _06_Library\src\stm32f10x_dma.c          0x00000000   Number         0  stm32f10x_dma.o ABSOLUTE
    _06_Library\src\stm32f10x_exti.c         0x00000000   Number         0  stm32f10x_exti.o ABSOLUTE
    _06_Library\src\stm32f10x_gpio.c         0x00000000   Number         0  stm32f10x_gpio.o ABSOLUTE
    _06_Library\src\stm32f10x_rcc.c          0x00000000   Number         0  stm32f10x_rcc.o ABSOLUTE
    _06_Library\src\stm32f10x_tim.c          0x00000000   Number         0  stm32f10x_tim.o ABSOLUTE
    _06_Library\src\stm32f10x_usart.c        0x00000000   Number         0  stm32f10x_usart.o ABSOLUTE
    cdcmple.s                                0x00000000   Number         0  cdcmple.o ABSOLUTE
    cdrcmple.s                               0x00000000   Number         0  cdrcmple.o ABSOLUTE
    cfcmple.s                                0x00000000   Number         0  cfcmple.o ABSOLUTE
    cfrcmple.s                               0x00000000   Number         0  cfrcmple.o ABSOLUTE
    dc.s                                     0x00000000   Number         0  dc.o ABSOLUTE
    handlers.s                               0x00000000   Number         0  handlers.o ABSOLUTE
    init.s                                   0x00000000   Number         0  init.o ABSOLUTE
    RESET                                    0x08000000   Section      304  startup_stm32f10x_hd.o(RESET)
    .ARM.Collect$$$$00000000                 0x08000130   Section        0  entry.o(.ARM.Collect$$$$00000000)
    .ARM.Collect$$$$00000001                 0x08000130   Section        4  entry2.o(.ARM.Collect$$$$00000001)
    .ARM.Collect$$$$00000004                 0x08000134   Section        4  entry5.o(.ARM.Collect$$$$00000004)
    .ARM.Collect$$$$00000008                 0x08000138   Section        0  entry7b.o(.ARM.Collect$$$$00000008)
    .ARM.Collect$$$$0000000A                 0x08000138   Section        0  entry8b.o(.ARM.Collect$$$$0000000A)
    .ARM.Collect$$$$0000000B                 0x08000138   Section        8  entry9a.o(.ARM.Collect$$$$0000000B)
    .ARM.Collect$$$$0000000D                 0x08000140   Section        0  entry10a.o(.ARM.Collect$$$$0000000D)
    .ARM.Collect$$$$0000000F                 0x08000140   Section        0  entry11a.o(.ARM.Collect$$$$0000000F)
    .ARM.Collect$$$$00002712                 0x08000140   Section        4  entry2.o(.ARM.Collect$$$$00002712)
    __lit__00000000                          0x08000140   Data           4  entry2.o(.ARM.Collect$$$$00002712)
    .text                                    0x08000144   Section       36  startup_stm32f10x_hd.o(.text)
    .text                                    0x08000168   Section        0  ldiv.o(.text)
    .text                                    0x080001ca   Section        0  memseta.o(.text)
    .text                                    0x080001ee   Section        0  memcmp.o(.text)
    .text                                    0x08000208   Section        0  fadd.o(.text)
    .text                                    0x080002b8   Section        0  fmul.o(.text)
    .text                                    0x0800031c   Section        0  fdiv.o(.text)
    .text                                    0x08000398   Section        0  dadd.o(.text)
    .text                                    0x080004e6   Section        0  dmul.o(.text)
    .text                                    0x080005ca   Section        0  ddiv.o(.text)
    .text                                    0x080006a8   Section        0  fflti.o(.text)
    .text                                    0x080006ba   Section        0  ffltui.o(.text)
    .text                                    0x080006c4   Section        0  dflti.o(.text)
    .text                                    0x080006e6   Section        0  dfltui.o(.text)
    .text                                    0x08000700   Section        0  ffixi.o(.text)
    .text                                    0x08000732   Section        0  ffixui.o(.text)
    .text                                    0x0800075a   Section        0  dfixi.o(.text)
    .text                                    0x08000798   Section        0  dfixui.o(.text)
    .text                                    0x080007ca   Section        0  f2d.o(.text)
    .text                                    0x080007f0   Section       48  cdcmple.o(.text)
    .text                                    0x08000820   Section       48  cdrcmple.o(.text)
    .text                                    0x08000850   Section        0  d2f.o(.text)
    .text                                    0x08000888   Section       20  cfcmple.o(.text)
    .text                                    0x0800089c   Section       20  cfrcmple.o(.text)
    .text                                    0x080008b0   Section        0  uidiv.o(.text)
    .text                                    0x080008dc   Section        0  uldiv.o(.text)
    .text                                    0x0800093e   Section        0  llshl.o(.text)
    .text                                    0x0800095c   Section        0  llushr.o(.text)
    .text                                    0x0800097c   Section        0  llsshr.o(.text)
    .text                                    0x080009a0   Section        0  strtod.o(.text)
    _local_sscanf                            0x080009a1   Thumb Code    54  strtod.o(.text)
    .text                                    0x08000a3c   Section        0  fepilogue.o(.text)
    .text                                    0x08000a3c   Section        0  iusefp.o(.text)
    .text                                    0x08000aaa   Section        0  depilogue.o(.text)
    .text                                    0x08000b64   Section        0  dscalb.o(.text)
    .text                                    0x08000b92   Section        0  dfixul.o(.text)
    .text                                    0x08000bc4   Section       36  init.o(.text)
    .text                                    0x08000be8   Section        0  isspace_c.o(.text)
    .text                                    0x08000bf4   Section        0  scanf_fp.o(.text)
    _fp_value                                0x08000bf5   Thumb Code   256  scanf_fp.o(.text)
    .text                                    0x08000f2c   Section        0  _sgetc.o(.text)
    .text                                    0x08000f6c   Section        0  dsqrt.o(.text)
    .text                                    0x08001010   Section        0  ctype_c.o(.text)
    .text                                    0x08001038   Section        0  dfltul.o(.text)
    .text                                    0x08001050   Section        0  __dczerorl2.o(.text)
    i.ADC_Cmd                                0x080010a6   Section        0  stm32f10x_adc.o(i.ADC_Cmd)
    i.ADC_DeInit                             0x080010bc   Section        0  stm32f10x_adc.o(i.ADC_DeInit)
    i.ADC_GetCalibrationStatus               0x08001118   Section        0  stm32f10x_adc.o(i.ADC_GetCalibrationStatus)
    i.ADC_GetConversionValue                 0x0800112c   Section        0  stm32f10x_adc.o(i.ADC_GetConversionValue)
    i.ADC_GetFlagStatus                      0x08001134   Section        0  stm32f10x_adc.o(i.ADC_GetFlagStatus)
    i.ADC_GetResetCalibrationStatus          0x08001146   Section        0  stm32f10x_adc.o(i.ADC_GetResetCalibrationStatus)
    i.ADC_Init                               0x0800115c   Section        0  stm32f10x_adc.o(i.ADC_Init)
    i.ADC_RegularChannelConfig               0x080011ac   Section        0  stm32f10x_adc.o(i.ADC_RegularChannelConfig)
    i.ADC_ResetCalibration                   0x08001264   Section        0  stm32f10x_adc.o(i.ADC_ResetCalibration)
    i.ADC_SoftwareStartConvCmd               0x0800126e   Section        0  stm32f10x_adc.o(i.ADC_SoftwareStartConvCmd)
    i.ADC_StartCalibration                   0x08001284   Section        0  stm32f10x_adc.o(i.ADC_StartCalibration)
    i.AMoto_Inti_select                      0x08001290   Section        0  my_pwm.o(i.AMoto_Inti_select)
    i.App_WindCar_Main                       0x08001330   Section        0  app_windcar.o(i.App_WindCar_Main)
    i.App_WindCar_Start                      0x08001468   Section        0  app_windcar.o(i.App_WindCar_Start)
    i.BMoto_Inti_select                      0x08001478   Section        0  my_pwm.o(i.BMoto_Inti_select)
    i.Balance_Control                        0x0800151c   Section        0  app_tracking.o(i.Balance_Control)
    i.DMA1_Channel1_IRQHandler               0x080015cc   Section        0  drive_interrupt.o(i.DMA1_Channel1_IRQHandler)
    i.DMA_ClearITPendingBit                  0x08001620   Section        0  stm32f10x_dma.o(i.DMA_ClearITPendingBit)
    i.DMP_Init                               0x0800163c   Section        0  drive_mpu6050.o(i.DMP_Init)
    i.EXTI9_5_IRQHandler                     0x08001728   Section        0  drive_interrupt.o(i.EXTI9_5_IRQHandler)
    i.EXTI_ClearITPendingBit                 0x0800174c   Section        0  stm32f10x_exti.o(i.EXTI_ClearITPendingBit)
    i.EXTI_GetITStatus                       0x08001758   Section        0  stm32f10x_exti.o(i.EXTI_GetITStatus)
    i.EXTI_Init                              0x08001780   Section        0  stm32f10x_exti.o(i.EXTI_Init)
    i.FF_CLK                                 0x08001814   Section        0  drive_oled.o(i.FF_CLK)
    FF_CLK                                   0x08001815   Thumb Code    18  drive_oled.o(i.FF_CLK)
    i.FF_CS                                  0x0800182c   Section        0  drive_oled.o(i.FF_CS)
    FF_CS                                    0x0800182d   Thumb Code    18  drive_oled.o(i.FF_CS)
    i.FF_Init                                0x08001844   Section        0  drive_oled.o(i.FF_Init)
    FF_Init                                  0x08001845   Thumb Code    66  drive_oled.o(i.FF_Init)
    i.FF_SO                                  0x0800188c   Section        0  drive_oled.o(i.FF_SO)
    FF_SO                                    0x0800188d   Thumb Code    18  drive_oled.o(i.FF_SO)
    i.GPIO_EXTILineConfig                    0x080018a4   Section        0  stm32f10x_gpio.o(i.GPIO_EXTILineConfig)
    i.GPIO_Init                              0x080018e4   Section        0  stm32f10x_gpio.o(i.GPIO_Init)
    i.GPIO_Key_Init                          0x080019fc   Section        0  drive_gpio.o(i.GPIO_Key_Init)
    i.GPIO_ReadInputDataBit                  0x08001a28   Section        0  stm32f10x_gpio.o(i.GPIO_ReadInputDataBit)
    i.GPIO_ResetBits                         0x08001a3a   Section        0  stm32f10x_gpio.o(i.GPIO_ResetBits)
    i.GPIO_SetBits                           0x08001a3e   Section        0  stm32f10x_gpio.o(i.GPIO_SetBits)
    i.GPIO_Tracking_Init                     0x08001a44   Section        0  drive_gpio.o(i.GPIO_Tracking_Init)
    i.GPIO_WriteBit                          0x08001aa4   Section        0  stm32f10x_gpio.o(i.GPIO_WriteBit)
    i.Get_Adc2                               0x08001ab0   Section        0  adc.o(i.Get_Adc2)
    i.Get_Adc2_Average                       0x08001ae4   Section        0  adc.o(i.Get_Adc2_Average)
    i.Get_Angle                              0x08001b14   Section        0  mpu6050.o(i.Get_Angle)
    i.I2C_ReadOneByte                        0x08001cf4   Section        0  drive_ioi2c.o(i.I2C_ReadOneByte)
    i.IIC_Ack                                0x08001d3c   Section        0  drive_ioi2c.o(i.IIC_Ack)
    i.IIC_Init                               0x08001d88   Section        0  drive_ioi2c.o(i.IIC_Init)
    i.IIC_NAck                               0x08001dc0   Section        0  drive_ioi2c.o(i.IIC_NAck)
    i.IIC_Read_Byte                          0x08001e0c   Section        0  drive_ioi2c.o(i.IIC_Read_Byte)
    i.IIC_Send_Byte                          0x08001e7c   Section        0  drive_ioi2c.o(i.IIC_Send_Byte)
    i.IIC_Start                              0x08001ee0   Section        0  drive_ioi2c.o(i.IIC_Start)
    i.IIC_Stop                               0x08001f48   Section        0  drive_ioi2c.o(i.IIC_Stop)
    i.IIC_Wait_Ack                           0x08001f90   Section        0  drive_ioi2c.o(i.IIC_Wait_Ack)
    i.IICreadByte                            0x08001ff8   Section        0  drive_ioi2c.o(i.IICreadByte)
    i.IICwriteBit                            0x0800200e   Section        0  drive_ioi2c.o(i.IICwriteBit)
    i.IICwriteBits                           0x0800204e   Section        0  drive_ioi2c.o(i.IICwriteBits)
    i.IICwriteByte                           0x080020b8   Section        0  drive_ioi2c.o(i.IICwriteByte)
    i.IICwriteBytes                          0x080020cc   Section        0  drive_ioi2c.o(i.IICwriteBytes)
    i.InitAdc_Init                           0x08002114   Section        0  adc.o(i.InitAdc_Init)
    i.Kalman_Filter                          0x080021a0   Section        0  filter.o(i.Kalman_Filter)
    i.LcdDisChar                             0x08002418   Section        0  drive_oled.o(i.LcdDisChar)
    i.LcdDisplay_HZ                          0x08002460   Section        0  drive_oled.o(i.LcdDisplay_HZ)
    i.LeftA_Moto_select                      0x08002510   Section        0  my_pwm.o(i.LeftA_Moto_select)
    i.LeftB_Moto_select                      0x0800255c   Section        0  my_pwm.o(i.LeftB_Moto_select)
    i.MPU6050_initialize                     0x080025a8   Section        0  drive_mpu6050.o(i.MPU6050_initialize)
    i.MPU6050_setClockSource                 0x080025d0   Section        0  drive_mpu6050.o(i.MPU6050_setClockSource)
    i.MPU6050_setFullScaleAccelRange         0x080025e4   Section        0  drive_mpu6050.o(i.MPU6050_setFullScaleAccelRange)
    i.MPU6050_setFullScaleGyroRange          0x080025f8   Section        0  drive_mpu6050.o(i.MPU6050_setFullScaleGyroRange)
    i.MPU6050_setI2CBypassEnabled            0x0800260c   Section        0  drive_mpu6050.o(i.MPU6050_setI2CBypassEnabled)
    i.MPU6050_setI2CMasterModeEnabled        0x0800261e   Section        0  drive_mpu6050.o(i.MPU6050_setI2CMasterModeEnabled)
    i.MPU6050_setSleepEnabled                0x08002630   Section        0  drive_mpu6050.o(i.MPU6050_setSleepEnabled)
    i.MiniBalance_EXTI_Init                  0x08002644   Section        0  drive_exti.o(i.MiniBalance_EXTI_Init)
    i.NVIC_Init                              0x080026b0   Section        0  misc.o(i.NVIC_Init)
    i.NVIC_PriorityGroupConfig               0x08002720   Section        0  misc.o(i.NVIC_PriorityGroupConfig)
    i.OLED_CLS                               0x08002734   Section        0  drive_oled.o(i.OLED_CLS)
    i.OLED_Fill                              0x08002740   Section        0  drive_oled.o(i.OLED_Fill)
    i.OLED_Init                              0x08002790   Section        0  drive_oled.o(i.OLED_Init)
    i.OLED_SetPos                            0x080028cc   Section        0  drive_oled.o(i.OLED_SetPos)
    i.OLED_WrCmd                             0x080028f4   Section        0  drive_oled.o(i.OLED_WrCmd)
    i.OLED_WrDat                             0x0800294c   Section        0  drive_oled.o(i.OLED_WrDat)
    i.OSTask_Creat                           0x080029a4   Section        0  os_manage.o(i.OSTask_Creat)
    i.OSThread_4                             0x080029c8   Section        0  os_run.o(i.OSThread_4)
    i.OSThread_6                             0x08002a78   Section        0  os_run.o(i.OSThread_6)
    i.OSThread_Free                          0x08002b38   Section        0  os_run.o(i.OSThread_Free)
    i.OS_Clear                               0x08002bfc   Section        0  os_ui.o(i.OS_Clear)
    i.OS_Decim_Show                          0x08002c04   Section        0  os_ui.o(i.OS_Decim_Show)
    i.OS_Init                                0x08002d88   Section        0  os_startfile.o(i.OS_Init)
    i.OS_String_Show                         0x08002da8   Section        0  os_ui.o(i.OS_String_Show)
    i.OS_UI_Init                             0x08002e34   Section        0  os_ui.o(i.OS_UI_Init)
    i.OSdelay_ms                             0x08002e40   Section        0  os_startfile.o(i.OSdelay_ms)
    i.OSdelay_us                             0x08002e7c   Section        0  os_startfile.o(i.OSdelay_us)
    i.PID_Control                            0x08002eb0   Section        0  drive_windcar_control.o(i.PID_Control)
    i.PWM_Set                                0x08003060   Section        0  drive_windcar_control.o(i.PWM_Set)
    PWM_Set                                  0x08003061   Thumb Code    76  drive_windcar_control.o(i.PWM_Set)
    i.RCC_ADCCLKConfig                       0x080030b4   Section        0  stm32f10x_rcc.o(i.RCC_ADCCLKConfig)
    i.RCC_APB1PeriphClockCmd                 0x080030cc   Section        0  stm32f10x_rcc.o(i.RCC_APB1PeriphClockCmd)
    i.RCC_APB2PeriphClockCmd                 0x080030ec   Section        0  stm32f10x_rcc.o(i.RCC_APB2PeriphClockCmd)
    i.RCC_APB2PeriphResetCmd                 0x0800310c   Section        0  stm32f10x_rcc.o(i.RCC_APB2PeriphResetCmd)
    i.Read_DMP                               0x0800312c   Section        0  drive_mpu6050.o(i.Read_DMP)
    i.Read_FLASH                             0x08003388   Section        0  drive_oled.o(i.Read_FLASH)
    Read_FLASH                               0x08003389   Thumb Code    88  drive_oled.o(i.Read_FLASH)
    i.Revise_PID                             0x080033e4   Section        0  drive_usart.o(i.Revise_PID)
    i.RighA_Moto_select                      0x080033e8   Section        0  my_pwm.o(i.RighA_Moto_select)
    i.RighA_PWM                              0x08003430   Section        0  my_pwm.o(i.RighA_PWM)
    i.RighB_Moto_select                      0x08003444   Section        0  my_pwm.o(i.RighB_Moto_select)
    i.RighB_PWM                              0x08003490   Section        0  my_pwm.o(i.RighB_PWM)
    i.SetSysClock                            0x080034a4   Section        0  system_stm32f10x.o(i.SetSysClock)
    SetSysClock                              0x080034a5   Thumb Code     8  system_stm32f10x.o(i.SetSysClock)
    i.SetSysClockTo72                        0x080034ac   Section        0  system_stm32f10x.o(i.SetSysClockTo72)
    SetSysClockTo72                          0x080034ad   Thumb Code   214  system_stm32f10x.o(i.SetSysClockTo72)
    i.SmallCar_BalanceScan_Main              0x0800358c   Section        0  app_smallcar.o(i.SmallCar_BalanceScan_Main)
    i.SmallCar_Behind_Control                0x080035e4   Section        0  drive_smallcar.o(i.SmallCar_Behind_Control)
    i.SmallCar_Front_Control                 0x08003628   Section        0  drive_smallcar.o(i.SmallCar_Front_Control)
    i.SmallCar_Init                          0x0800366c   Section        0  drive_smallcar.o(i.SmallCar_Init)
    i.SmallCar_Tracking                      0x08003704   Section        0  app_tracking.o(i.SmallCar_Tracking)
    i.SystemInit                             0x08003a68   Section        0  system_stm32f10x.o(i.SystemInit)
    i.TIM1_PWM_Init                          0x08003ac8   Section        0  my_pwm.o(i.TIM1_PWM_Init)
    i.TIM2_IRQHandler                        0x08003b88   Section        0  drive_interrupt.o(i.TIM2_IRQHandler)
    i.TIM2_Init                              0x08003ba4   Section        0  drive_timer.o(i.TIM2_Init)
    i.TIM3_IRQHandler                        0x08003c04   Section        0  drive_interrupt.o(i.TIM3_IRQHandler)
    i.TIM3_Init                              0x08003c18   Section        0  drive_timer.o(i.TIM3_Init)
    i.TIM3_PWM_Init                          0x08003c78   Section        0  my_pwm.o(i.TIM3_PWM_Init)
    i.TIM4_IRQHandler                        0x08003d28   Section        0  drive_interrupt.o(i.TIM4_IRQHandler)
    i.TIM4_Init                              0x08003d3c   Section        0  drive_timer.o(i.TIM4_Init)
    i.TIM7_IRQHandler                        0x08003d9c   Section        0  my_tim.o(i.TIM7_IRQHandler)
    i.TIM_ARRPreloadConfig                   0x08003db4   Section        0  stm32f10x_tim.o(i.TIM_ARRPreloadConfig)
    i.TIM_ClearITPendingBit                  0x08003dcc   Section        0  stm32f10x_tim.o(i.TIM_ClearITPendingBit)
    i.TIM_Cmd                                0x08003dd2   Section        0  stm32f10x_tim.o(i.TIM_Cmd)
    i.TIM_CtrlPWMOutputs                     0x08003dea   Section        0  stm32f10x_tim.o(i.TIM_CtrlPWMOutputs)
    i.TIM_GetCounter                         0x08003e08   Section        0  stm32f10x_tim.o(i.TIM_GetCounter)
    i.TIM_GetITStatus                        0x08003e0e   Section        0  stm32f10x_tim.o(i.TIM_GetITStatus)
    i.TIM_ITConfig                           0x08003e30   Section        0  stm32f10x_tim.o(i.TIM_ITConfig)
    i.TIM_OC1Init                            0x08003e44   Section        0  stm32f10x_tim.o(i.TIM_OC1Init)
    i.TIM_OC1PreloadConfig                   0x08003edc   Section        0  stm32f10x_tim.o(i.TIM_OC1PreloadConfig)
    i.TIM_OC2Init                            0x08003ef0   Section        0  stm32f10x_tim.o(i.TIM_OC2Init)
    i.TIM_OC2PreloadConfig                   0x08003f94   Section        0  stm32f10x_tim.o(i.TIM_OC2PreloadConfig)
    i.TIM_SetCompare2                        0x08003fae   Section        0  stm32f10x_tim.o(i.TIM_SetCompare2)
    i.TIM_TimeBaseInit                       0x08003fb4   Section        0  stm32f10x_tim.o(i.TIM_TimeBaseInit)
    i.USART2_IRQHandler                      0x08004058   Section        0  drive_usart.o(i.USART2_IRQHandler)
    i.USART_GetITStatus                      0x08004278   Section        0  stm32f10x_usart.o(i.USART_GetITStatus)
    i.USART_ReceiveData                      0x080042cc   Section        0  stm32f10x_usart.o(i.USART_ReceiveData)
    i.WindCar_Control_Main                   0x080042d6   Section        0  app_windcar_control.o(i.WindCar_Control_Main)
    i.WindCar_Control_Start                  0x080042e0   Section        0  app_windcar_control.o(i.WindCar_Control_Start)
    i.Wind_Balance_PID                       0x080042ec   Section        0  app_tracking.o(i.Wind_Balance_PID)
    i.Write_FF                               0x08004404   Section        0  drive_oled.o(i.Write_FF)
    Write_FF                                 0x08004405   Thumb Code   104  drive_oled.o(i.Write_FF)
    i.Yijielvbo                              0x08004470   Section        0  filter.o(i.Yijielvbo)
    i.__0printf                              0x08004504   Section        0  printfa.o(i.__0printf)
    i.__0sprintf                             0x08004524   Section        0  printfa.o(i.__0sprintf)
    i.__ARM_fpclassify                       0x0800454c   Section        0  fpclassify.o(i.__ARM_fpclassify)
    i.__ieee754_rem_pio2                     0x08004574   Section        0  rred.o(i.__ieee754_rem_pio2)
    i.__kernel_cos                           0x080048fc   Section        0  cos_i.o(i.__kernel_cos)
    i.__kernel_poly                          0x080049f8   Section        0  poly.o(i.__kernel_poly)
    i.__kernel_sin                           0x08004aa4   Section        0  sin_i.o(i.__kernel_sin)
    i.__mathlib_dbl_divzero                  0x08004b90   Section        0  dunder.o(i.__mathlib_dbl_divzero)
    i.__mathlib_dbl_infnan                   0x08004ba0   Section        0  dunder.o(i.__mathlib_dbl_infnan)
    i.__mathlib_dbl_infnan2                  0x08004ba6   Section        0  dunder.o(i.__mathlib_dbl_infnan2)
    i.__mathlib_dbl_invalid                  0x08004baa   Section        0  dunder.o(i.__mathlib_dbl_invalid)
    i.__mathlib_dbl_overflow                 0x08004bb6   Section        0  dunder.o(i.__mathlib_dbl_overflow)
    i.__mathlib_dbl_underflow                0x08004bc4   Section        0  dunder.o(i.__mathlib_dbl_underflow)
    i.__read_errno                           0x08004bd4   Section        0  errno.o(i.__read_errno)
    i.__scatterload_copy                     0x08004be0   Section       14  handlers.o(i.__scatterload_copy)
    i.__scatterload_null                     0x08004bee   Section        2  handlers.o(i.__scatterload_null)
    i.__scatterload_zeroinit                 0x08004bf0   Section       14  handlers.o(i.__scatterload_zeroinit)
    i.__set_errno                            0x08004c00   Section        0  errno.o(i.__set_errno)
    i._fp_digits                             0x08004c0c   Section        0  printfa.o(i._fp_digits)
    _fp_digits                               0x08004c0d   Thumb Code   334  printfa.o(i._fp_digits)
    i._is_digit                              0x08004d70   Section        0  scanf_fp.o(i._is_digit)
    i._printf_core                           0x08004d80   Section        0  printfa.o(i._printf_core)
    _printf_core                             0x08004d81   Thumb Code  1744  printfa.o(i._printf_core)
    i._printf_post_padding                   0x0800545c   Section        0  printfa.o(i._printf_post_padding)
    _printf_post_padding                     0x0800545d   Thumb Code    36  printfa.o(i._printf_post_padding)
    i._printf_pre_padding                    0x08005480   Section        0  printfa.o(i._printf_pre_padding)
    _printf_pre_padding                      0x08005481   Thumb Code    46  printfa.o(i._printf_pre_padding)
    i._sputc                                 0x080054ae   Section        0  printfa.o(i._sputc)
    _sputc                                   0x080054af   Thumb Code    10  printfa.o(i._sputc)
    i.accel_self_test                        0x080054b8   Section        0  inv_mpu.o(i.accel_self_test)
    accel_self_test                          0x080054b9   Thumb Code   164  inv_mpu.o(i.accel_self_test)
    i.asin                                   0x08005560   Section        0  asin.o(i.asin)
    i.atan                                   0x080057d0   Section        0  atan.o(i.atan)
    i.atan2                                  0x080059f0   Section        0  atan2.o(i.atan2)
    i.atof                                   0x08005b70   Section        0  atof.o(i.atof)
    i.cos                                    0x08005b9c   Section        0  cos.o(i.cos)
    i.decode_gesture                         0x08005c38   Section        0  inv_mpu_dmp_motion_driver.o(i.decode_gesture)
    decode_gesture                           0x08005c39   Thumb Code    94  inv_mpu_dmp_motion_driver.o(i.decode_gesture)
    i.dmp_enable_6x_lp_quat                  0x08005c9c   Section        0  inv_mpu_dmp_motion_driver.o(i.dmp_enable_6x_lp_quat)
    i.dmp_enable_feature                     0x08005cd8   Section        0  inv_mpu_dmp_motion_driver.o(i.dmp_enable_feature)
    i.dmp_enable_gyro_cal                    0x08005ef4   Section        0  inv_mpu_dmp_motion_driver.o(i.dmp_enable_gyro_cal)
    i.dmp_enable_lp_quat                     0x08005f4c   Section        0  inv_mpu_dmp_motion_driver.o(i.dmp_enable_lp_quat)
    i.dmp_load_motion_driver_firmware        0x08005f88   Section        0  inv_mpu_dmp_motion_driver.o(i.dmp_load_motion_driver_firmware)
    i.dmp_read_fifo                          0x08005fa0   Section        0  inv_mpu_dmp_motion_driver.o(i.dmp_read_fifo)
    i.dmp_set_accel_bias                     0x0800616c   Section        0  inv_mpu_dmp_motion_driver.o(i.dmp_set_accel_bias)
    i.dmp_set_fifo_rate                      0x0800629c   Section        0  inv_mpu_dmp_motion_driver.o(i.dmp_set_fifo_rate)
    i.dmp_set_gyro_bias                      0x0800630c   Section        0  inv_mpu_dmp_motion_driver.o(i.dmp_set_gyro_bias)
    i.dmp_set_orientation                    0x0800643c   Section        0  inv_mpu_dmp_motion_driver.o(i.dmp_set_orientation)
    i.dmp_set_shake_reject_thresh            0x08006574   Section        0  inv_mpu_dmp_motion_driver.o(i.dmp_set_shake_reject_thresh)
    i.dmp_set_shake_reject_time              0x080065ac   Section        0  inv_mpu_dmp_motion_driver.o(i.dmp_set_shake_reject_time)
    i.dmp_set_shake_reject_timeout           0x080065d2   Section        0  inv_mpu_dmp_motion_driver.o(i.dmp_set_shake_reject_timeout)
    i.dmp_set_tap_axes                       0x080065f8   Section        0  inv_mpu_dmp_motion_driver.o(i.dmp_set_tap_axes)
    i.dmp_set_tap_count                      0x0800663e   Section        0  inv_mpu_dmp_motion_driver.o(i.dmp_set_tap_count)
    i.dmp_set_tap_thresh                     0x08006664   Section        0  inv_mpu_dmp_motion_driver.o(i.dmp_set_tap_thresh)
    i.dmp_set_tap_time                       0x08006804   Section        0  inv_mpu_dmp_motion_driver.o(i.dmp_set_tap_time)
    i.dmp_set_tap_time_multi                 0x0800682a   Section        0  inv_mpu_dmp_motion_driver.o(i.dmp_set_tap_time_multi)
    i.fputc                                  0x08006850   Section        0  drive_usart.o(i.fputc)
    i.get_accel_prod_shift                   0x0800686c   Section        0  inv_mpu.o(i.get_accel_prod_shift)
    get_accel_prod_shift                     0x0800686d   Thumb Code   168  inv_mpu.o(i.get_accel_prod_shift)
    i.get_st_biases                          0x08006920   Section        0  inv_mpu.o(i.get_st_biases)
    get_st_biases                            0x08006921   Thumb Code  1132  inv_mpu.o(i.get_st_biases)
    i.gyro_self_test                         0x08006d90   Section        0  inv_mpu.o(i.gyro_self_test)
    gyro_self_test                           0x08006d91   Thumb Code   256  inv_mpu.o(i.gyro_self_test)
    i.i2cRead                                0x08006ea0   Section        0  drive_ioi2c.o(i.i2cRead)
    i.i2cWrite                               0x08006f16   Section        0  drive_ioi2c.o(i.i2cWrite)
    i.inv_orientation_matrix_to_scalar       0x08006f76   Section        0  drive_mpu6050.o(i.inv_orientation_matrix_to_scalar)
    inv_orientation_matrix_to_scalar         0x08006f77   Thumb Code    40  drive_mpu6050.o(i.inv_orientation_matrix_to_scalar)
    i.inv_row_2_scale                        0x08006f9e   Section        0  drive_mpu6050.o(i.inv_row_2_scale)
    inv_row_2_scale                          0x08006f9f   Thumb Code    78  drive_mpu6050.o(i.inv_row_2_scale)
    i.main                                   0x08006fec   Section        0  main.o(i.main)
    i.mpu_configure_fifo                     0x08007004   Section        0  inv_mpu.o(i.mpu_configure_fifo)
    i.mpu_get_accel_fsr                      0x08007074   Section        0  inv_mpu.o(i.mpu_get_accel_fsr)
    i.mpu_get_accel_sens                     0x080070c0   Section        0  inv_mpu.o(i.mpu_get_accel_sens)
    i.mpu_get_fifo_config                    0x08007114   Section        0  inv_mpu.o(i.mpu_get_fifo_config)
    i.mpu_get_gyro_fsr                       0x08007124   Section        0  inv_mpu.o(i.mpu_get_gyro_fsr)
    i.mpu_get_gyro_sens                      0x08007168   Section        0  inv_mpu.o(i.mpu_get_gyro_sens)
    i.mpu_get_lpf                            0x080071b8   Section        0  inv_mpu.o(i.mpu_get_lpf)
    i.mpu_get_sample_rate                    0x08007208   Section        0  inv_mpu.o(i.mpu_get_sample_rate)
    i.mpu_init                               0x08007228   Section        0  inv_mpu.o(i.mpu_init)
    i.mpu_load_firmware                      0x080073b8   Section        0  inv_mpu.o(i.mpu_load_firmware)
    i.mpu_lp_accel_mode                      0x08007470   Section        0  inv_mpu.o(i.mpu_lp_accel_mode)
    i.mpu_read_fifo_stream                   0x08007550   Section        0  inv_mpu.o(i.mpu_read_fifo_stream)
    i.mpu_read_mem                           0x08007610   Section        0  inv_mpu.o(i.mpu_read_mem)
    i.mpu_reset_fifo                         0x08007690   Section        0  inv_mpu.o(i.mpu_reset_fifo)
    i.mpu_run_self_test                      0x0800784c   Section        0  inv_mpu.o(i.mpu_run_self_test)
    i.mpu_set_accel_fsr                      0x08007968   Section        0  inv_mpu.o(i.mpu_set_accel_fsr)
    i.mpu_set_bypass                         0x080079ec   Section        0  inv_mpu.o(i.mpu_set_bypass)
    i.mpu_set_dmp_state                      0x08007b38   Section        0  inv_mpu.o(i.mpu_set_dmp_state)
    i.mpu_set_gyro_fsr                       0x08007bc8   Section        0  inv_mpu.o(i.mpu_set_gyro_fsr)
    i.mpu_set_int_latched                    0x08007c50   Section        0  inv_mpu.o(i.mpu_set_int_latched)
    i.mpu_set_lpf                            0x08007cbc   Section        0  inv_mpu.o(i.mpu_set_lpf)
    i.mpu_set_sample_rate                    0x08007d40   Section        0  inv_mpu.o(i.mpu_set_sample_rate)
    i.mpu_set_sensors                        0x08007ddc   Section        0  inv_mpu.o(i.mpu_set_sensors)
    i.mpu_write_mem                          0x08007eac   Section        0  inv_mpu.o(i.mpu_write_mem)
    i.myget_ms                               0x08007f2c   Section        0  inv_mpu.o(i.myget_ms)
    i.pidIncrement                           0x08007f30   Section        0  userpid.o(i.pidIncrement)
    i.pow                                    0x080080a0   Section        0  pow.o(i.pow)
    i.run_self_test                          0x08008a58   Section        0  drive_mpu6050.o(i.run_self_test)
    run_self_test                            0x08008a59   Thumb Code   144  drive_mpu6050.o(i.run_self_test)
    i.set_int_enable                         0x08008ae8   Section        0  inv_mpu.o(i.set_int_enable)
    set_int_enable                           0x08008ae9   Thumb Code   138  inv_mpu.o(i.set_int_enable)
    i.sqrt                                   0x08008b78   Section        0  sqrt.o(i.sqrt)
    .constdata                               0x08008bc4   Section     3062  inv_mpu_dmp_motion_driver.o(.constdata)
    dmp_memory                               0x08008bc4   Data        3062  inv_mpu_dmp_motion_driver.o(.constdata)
    .constdata                               0x080097bc   Section       80  inv_mpu.o(.constdata)
    .constdata                               0x08009810   Section       80  asin.o(.constdata)
    pS                                       0x08009810   Data          48  asin.o(.constdata)
    qS                                       0x08009840   Data          32  asin.o(.constdata)
    .constdata                               0x08009860   Section      136  pow.o(.constdata)
    bp                                       0x08009860   Data          16  pow.o(.constdata)
    dp_h                                     0x08009870   Data          16  pow.o(.constdata)
    dp_l                                     0x08009880   Data          16  pow.o(.constdata)
    L                                        0x08009890   Data          48  pow.o(.constdata)
    P                                        0x080098c0   Data          40  pow.o(.constdata)
    .constdata                               0x080098e8   Section      152  atan.o(.constdata)
    atanhi                                   0x080098e8   Data          32  atan.o(.constdata)
    atanlo                                   0x08009908   Data          32  atan.o(.constdata)
    aTodd                                    0x08009928   Data          40  atan.o(.constdata)
    aTeven                                   0x08009950   Data          48  atan.o(.constdata)
    .constdata                               0x08009980   Section       48  cos_i.o(.constdata)
    C                                        0x08009980   Data          48  cos_i.o(.constdata)
    .constdata                               0x080099b0   Section        8  qnan.o(.constdata)
    .constdata                               0x080099b8   Section      200  rred.o(.constdata)
    pio2s                                    0x080099b8   Data          48  rred.o(.constdata)
    twooverpi                                0x080099e8   Data         152  rred.o(.constdata)
    .constdata                               0x08009a80   Section       40  sin_i.o(.constdata)
    S                                        0x08009a80   Data          40  sin_i.o(.constdata)
    .constdata                               0x08009aa8   Section       64  ctype_c.o(.constdata)
    .conststring                             0x08009ae8   Section       21  app_smallcar.o(.conststring)
    .conststring                             0x08009b00   Section       12  app_windcar.o(.conststring)
    .conststring                             0x08009b0c   Section       16  app_windcar_control.o(.conststring)
    .data                                    0x20000000   Section       48  app_smallcar.o(.data)
    .data                                    0x20000030   Section       32  app_tracking.o(.data)
    now                                      0x20000030   Data           4  app_tracking.o(.data)
    output                                   0x20000034   Data           4  app_tracking.o(.data)
    B_output                                 0x20000038   Data           4  app_tracking.o(.data)
    Turn                                     0x2000003c   Data           4  app_tracking.o(.data)
    output_leftPWM                           0x20000040   Data           4  app_tracking.o(.data)
    output_rightPWM                          0x20000044   Data           4  app_tracking.o(.data)
    LastState                                0x20000048   Data           4  app_tracking.o(.data)
    Integral                                 0x2000004c   Data           4  app_tracking.o(.data)
    .data                                    0x20000050   Section       36  app_windcar.o(.data)
    .data                                    0x20000074   Section       36  app_windcar_control.o(.data)
    .data                                    0x20000098   Section       16  os_startfile.o(.data)
    .data                                    0x200000a8   Section        1  os_ui.o(.data)
    UseState                                 0x200000a8   Data           1  os_ui.o(.data)
    .data                                    0x200000b0   Section       73  drive_windcar_control.o(.data)
    integral_error                           0x200000e0   Data           8  drive_windcar_control.o(.data)
    differential_error                       0x200000e8   Data           8  drive_windcar_control.o(.data)
    last                                     0x200000f0   Data           8  drive_windcar_control.o(.data)
    state                                    0x200000f8   Data           1  drive_windcar_control.o(.data)
    .data                                    0x200000fc   Section       53  drive_mpu6050.o(.data)
    gyro_orientation                         0x20000120   Data           9  drive_mpu6050.o(.data)
    a                                        0x20000130   Data           1  drive_mpu6050.o(.data)
    .data                                    0x20000134   Section       44  inv_mpu.o(.data)
    st                                       0x20000134   Data          44  inv_mpu.o(.data)
    .data                                    0x20000160   Section       13  drive_usart.o(.data)
    cnt                                      0x2000016a   Data           2  drive_usart.o(.data)
    Step                                     0x2000016c   Data           1  drive_usart.o(.data)
    .data                                    0x20000170   Section       28  mpu6050.o(.data)
    .data                                    0x2000018c   Section       84  filter.o(.data)
    .data                                    0x200001e0   Section        4  errno.o(.data)
    _errno                                   0x200001e0   Data           4  errno.o(.data)
    .bss                                     0x200001e4   Section       72  userpid.o(.bss)
    .bss                                     0x2000022c   Section       36  os_manage.o(.bss)
    .bss                                     0x20000250   Section      300  drive_smallcar.o(.bss)
    .bss                                     0x2000037c   Section       16  inv_mpu_dmp_motion_driver.o(.bss)
    dmp                                      0x2000037c   Data          16  inv_mpu_dmp_motion_driver.o(.bss)
    .bss                                     0x2000038c   Section      300  drive_usart.o(.bss)
    NumBuff                                  0x20000454   Data         100  drive_usart.o(.bss)
    .bss                                     0x200004b8   Section       96  adc.o(.bss)
    .bss                                     0x20000518   Section       16  filter.o(.bss)
    STACK                                    0x20000528   Section     1024  startup_stm32f10x_hd.o(STACK)

    Global Symbols

    Symbol Name                              Value     Ov Type        Size  Object(Section)

    BuildAttributes$$THM_ISAv4$P$D$K$B$S$PE$A:L22UL41UL21$X:L11$S22US41US21$IEEE1$IW$USESV6$~STKCKD$USESV7$~SHL$OTIME$ROPI$IEEEX$EBA8$MICROLIB$REQ8$PRES8$EABIv2 0x00000000   Number         0  anon$$obj.o ABSOLUTE
    __ARM_use_no_argv                        0x00000000   Number         0  main.o ABSOLUTE
    __use_no_errno                           0x00000000   Number         0  useno.o ABSOLUTE
    __use_no_exception_handling              0x00000000   Number         0  useno.o ABSOLUTE
    __use_no_fp                              0x00000000   Number         0  useno.o ABSOLUTE
    __use_no_heap                            0x00000000   Number         0  useno.o ABSOLUTE
    __use_no_heap_region                     0x00000000   Number         0  useno.o ABSOLUTE
    __use_no_semihosting                     0x00000000   Number         0  useno.o ABSOLUTE
    __use_no_semihosting_swi                 0x00000000   Number         0  useno.o ABSOLUTE
    __use_no_signal_handling                 0x00000000   Number         0  useno.o ABSOLUTE
    _printf_a                                0x00000000   Number         0  stubs.o ABSOLUTE
    _printf_c                                0x00000000   Number         0  stubs.o ABSOLUTE
    _printf_charcount                        0x00000000   Number         0  stubs.o ABSOLUTE
    _printf_d                                0x00000000   Number         0  stubs.o ABSOLUTE
    _printf_e                                0x00000000   Number         0  stubs.o ABSOLUTE
    _printf_f                                0x00000000   Number         0  stubs.o ABSOLUTE
    _printf_flags                            0x00000000   Number         0  stubs.o ABSOLUTE
    _printf_fp_dec                           0x00000000   Number         0  stubs.o ABSOLUTE
    _printf_fp_hex                           0x00000000   Number         0  stubs.o ABSOLUTE
    _printf_g                                0x00000000   Number         0  stubs.o ABSOLUTE
    _printf_i                                0x00000000   Number         0  stubs.o ABSOLUTE
    _printf_int_dec                          0x00000000   Number         0  stubs.o ABSOLUTE
    _printf_l                                0x00000000   Number         0  stubs.o ABSOLUTE
    _printf_lc                               0x00000000   Number         0  stubs.o ABSOLUTE
    _printf_ll                               0x00000000   Number         0  stubs.o ABSOLUTE
    _printf_lld                              0x00000000   Number         0  stubs.o ABSOLUTE
    _printf_lli                              0x00000000   Number         0  stubs.o ABSOLUTE
    _printf_llo                              0x00000000   Number         0  stubs.o ABSOLUTE
    _printf_llu                              0x00000000   Number         0  stubs.o ABSOLUTE
    _printf_llx                              0x00000000   Number         0  stubs.o ABSOLUTE
    _printf_longlong_dec                     0x00000000   Number         0  stubs.o ABSOLUTE
    _printf_longlong_hex                     0x00000000   Number         0  stubs.o ABSOLUTE
    _printf_longlong_oct                     0x00000000   Number         0  stubs.o ABSOLUTE
    _printf_ls                               0x00000000   Number         0  stubs.o ABSOLUTE
    _printf_mbtowc                           0x00000000   Number         0  stubs.o ABSOLUTE
    _printf_n                                0x00000000   Number         0  stubs.o ABSOLUTE
    _printf_o                                0x00000000   Number         0  stubs.o ABSOLUTE
    _printf_p                                0x00000000   Number         0  stubs.o ABSOLUTE
    _printf_percent                          0x00000000   Number         0  stubs.o ABSOLUTE
    _printf_pre_padding                      0x00000000   Number         0  stubs.o ABSOLUTE
    _printf_return_value                     0x00000000   Number         0  stubs.o ABSOLUTE
    _printf_s                                0x00000000   Number         0  stubs.o ABSOLUTE
    _printf_sizespec                         0x00000000   Number         0  stubs.o ABSOLUTE
    _printf_str                              0x00000000   Number         0  stubs.o ABSOLUTE
    _printf_truncate_signed                  0x00000000   Number         0  stubs.o ABSOLUTE
    _printf_truncate_unsigned                0x00000000   Number         0  stubs.o ABSOLUTE
    _printf_u                                0x00000000   Number         0  stubs.o ABSOLUTE
    _printf_wc                               0x00000000   Number         0  stubs.o ABSOLUTE
    _printf_wctomb                           0x00000000   Number         0  stubs.o ABSOLUTE
    _printf_widthprec                        0x00000000   Number         0  stubs.o ABSOLUTE
    _printf_x                                0x00000000   Number         0  stubs.o ABSOLUTE
    __cpp_initialize__aeabi_                  - Undefined Weak Reference
    __cxa_finalize                            - Undefined Weak Reference
    _clock_init                               - Undefined Weak Reference
    _microlib_exit                            - Undefined Weak Reference
    __Vectors_Size                           0x00000130   Number         0  startup_stm32f10x_hd.o ABSOLUTE
    __Vectors                                0x08000000   Data           4  startup_stm32f10x_hd.o(RESET)
    __Vectors_End                            0x08000130   Data           0  startup_stm32f10x_hd.o(RESET)
    __main                                   0x08000131   Thumb Code     0  entry.o(.ARM.Collect$$$$00000000)
    _main_stk                                0x08000131   Thumb Code     0  entry2.o(.ARM.Collect$$$$00000001)
    _main_scatterload                        0x08000135   Thumb Code     0  entry5.o(.ARM.Collect$$$$00000004)
    __main_after_scatterload                 0x08000139   Thumb Code     0  entry5.o(.ARM.Collect$$$$00000004)
    _main_clock                              0x08000139   Thumb Code     0  entry7b.o(.ARM.Collect$$$$00000008)
    _main_cpp_init                           0x08000139   Thumb Code     0  entry8b.o(.ARM.Collect$$$$0000000A)
    _main_init                               0x08000139   Thumb Code     0  entry9a.o(.ARM.Collect$$$$0000000B)
    __rt_final_cpp                           0x08000141   Thumb Code     0  entry10a.o(.ARM.Collect$$$$0000000D)
    __rt_final_exit                          0x08000141   Thumb Code     0  entry11a.o(.ARM.Collect$$$$0000000F)
    Reset_Handler                            0x08000145   Thumb Code     8  startup_stm32f10x_hd.o(.text)
    NMI_Handler                              0x0800014d   Thumb Code     2  startup_stm32f10x_hd.o(.text)
    HardFault_Handler                        0x0800014f   Thumb Code     2  startup_stm32f10x_hd.o(.text)
    MemManage_Handler                        0x08000151   Thumb Code     2  startup_stm32f10x_hd.o(.text)
    BusFault_Handler                         0x08000153   Thumb Code     2  startup_stm32f10x_hd.o(.text)
    UsageFault_Handler                       0x08000155   Thumb Code     2  startup_stm32f10x_hd.o(.text)
    SVC_Handler                              0x08000157   Thumb Code     2  startup_stm32f10x_hd.o(.text)
    DebugMon_Handler                         0x08000159   Thumb Code     2  startup_stm32f10x_hd.o(.text)
    PendSV_Handler                           0x0800015b   Thumb Code     2  startup_stm32f10x_hd.o(.text)
    SysTick_Handler                          0x0800015d   Thumb Code     2  startup_stm32f10x_hd.o(.text)
    ADC1_2_IRQHandler                        0x0800015f   Thumb Code     0  startup_stm32f10x_hd.o(.text)
    ADC3_IRQHandler                          0x0800015f   Thumb Code     0  startup_stm32f10x_hd.o(.text)
    CAN1_RX1_IRQHandler                      0x0800015f   Thumb Code     0  startup_stm32f10x_hd.o(.text)
    CAN1_SCE_IRQHandler                      0x0800015f   Thumb Code     0  startup_stm32f10x_hd.o(.text)
    DMA1_Channel2_IRQHandler                 0x0800015f   Thumb Code     0  startup_stm32f10x_hd.o(.text)
    DMA1_Channel3_IRQHandler                 0x0800015f   Thumb Code     0  startup_stm32f10x_hd.o(.text)
    DMA1_Channel4_IRQHandler                 0x0800015f   Thumb Code     0  startup_stm32f10x_hd.o(.text)
    DMA1_Channel5_IRQHandler                 0x0800015f   Thumb Code     0  startup_stm32f10x_hd.o(.text)
    DMA1_Channel6_IRQHandler                 0x0800015f   Thumb Code     0  startup_stm32f10x_hd.o(.text)
    DMA1_Channel7_IRQHandler                 0x0800015f   Thumb Code     0  startup_stm32f10x_hd.o(.text)
    DMA2_Channel1_IRQHandler                 0x0800015f   Thumb Code     0  startup_stm32f10x_hd.o(.text)
    DMA2_Channel2_IRQHandler                 0x0800015f   Thumb Code     0  startup_stm32f10x_hd.o(.text)
    DMA2_Channel3_IRQHandler                 0x0800015f   Thumb Code     0  startup_stm32f10x_hd.o(.text)
    DMA2_Channel4_5_IRQHandler               0x0800015f   Thumb Code     0  startup_stm32f10x_hd.o(.text)
    EXTI0_IRQHandler                         0x0800015f   Thumb Code     0  startup_stm32f10x_hd.o(.text)
    EXTI15_10_IRQHandler                     0x0800015f   Thumb Code     0  startup_stm32f10x_hd.o(.text)
    EXTI1_IRQHandler                         0x0800015f   Thumb Code     0  startup_stm32f10x_hd.o(.text)
    EXTI2_IRQHandler                         0x0800015f   Thumb Code     0  startup_stm32f10x_hd.o(.text)
    EXTI3_IRQHandler                         0x0800015f   Thumb Code     0  startup_stm32f10x_hd.o(.text)
    EXTI4_IRQHandler                         0x0800015f   Thumb Code     0  startup_stm32f10x_hd.o(.text)
    FLASH_IRQHandler                         0x0800015f   Thumb Code     0  startup_stm32f10x_hd.o(.text)
    FSMC_IRQHandler                          0x0800015f   Thumb Code     0  startup_stm32f10x_hd.o(.text)
    I2C1_ER_IRQHandler                       0x0800015f   Thumb Code     0  startup_stm32f10x_hd.o(.text)
    I2C1_EV_IRQHandler                       0x0800015f   Thumb Code     0  startup_stm32f10x_hd.o(.text)
    I2C2_ER_IRQHandler                       0x0800015f   Thumb Code     0  startup_stm32f10x_hd.o(.text)
    I2C2_EV_IRQHandler                       0x0800015f   Thumb Code     0  startup_stm32f10x_hd.o(.text)
    PVD_IRQHandler                           0x0800015f   Thumb Code     0  startup_stm32f10x_hd.o(.text)
    RCC_IRQHandler                           0x0800015f   Thumb Code     0  startup_stm32f10x_hd.o(.text)
    RTCAlarm_IRQHandler                      0x0800015f   Thumb Code     0  startup_stm32f10x_hd.o(.text)
    RTC_IRQHandler                           0x0800015f   Thumb Code     0  startup_stm32f10x_hd.o(.text)
    SDIO_IRQHandler                          0x0800015f   Thumb Code     0  startup_stm32f10x_hd.o(.text)
    SPI1_IRQHandler                          0x0800015f   Thumb Code     0  startup_stm32f10x_hd.o(.text)
    SPI2_IRQHandler                          0x0800015f   Thumb Code     0  startup_stm32f10x_hd.o(.text)
    SPI3_IRQHandler                          0x0800015f   Thumb Code     0  startup_stm32f10x_hd.o(.text)
    TAMPER_IRQHandler                        0x0800015f   Thumb Code     0  startup_stm32f10x_hd.o(.text)
    TIM1_BRK_IRQHandler                      0x0800015f   Thumb Code     0  startup_stm32f10x_hd.o(.text)
    TIM1_CC_IRQHandler                       0x0800015f   Thumb Code     0  startup_stm32f10x_hd.o(.text)
    TIM1_TRG_COM_IRQHandler                  0x0800015f   Thumb Code     0  startup_stm32f10x_hd.o(.text)
    TIM1_UP_IRQHandler                       0x0800015f   Thumb Code     0  startup_stm32f10x_hd.o(.text)
    TIM5_IRQHandler                          0x0800015f   Thumb Code     0  startup_stm32f10x_hd.o(.text)
    TIM6_IRQHandler                          0x0800015f   Thumb Code     0  startup_stm32f10x_hd.o(.text)
    TIM8_BRK_IRQHandler                      0x0800015f   Thumb Code     0  startup_stm32f10x_hd.o(.text)
    TIM8_CC_IRQHandler                       0x0800015f   Thumb Code     0  startup_stm32f10x_hd.o(.text)
    TIM8_TRG_COM_IRQHandler                  0x0800015f   Thumb Code     0  startup_stm32f10x_hd.o(.text)
    TIM8_UP_IRQHandler                       0x0800015f   Thumb Code     0  startup_stm32f10x_hd.o(.text)
    UART4_IRQHandler                         0x0800015f   Thumb Code     0  startup_stm32f10x_hd.o(.text)
    UART5_IRQHandler                         0x0800015f   Thumb Code     0  startup_stm32f10x_hd.o(.text)
    USART1_IRQHandler                        0x0800015f   Thumb Code     0  startup_stm32f10x_hd.o(.text)
    USART3_IRQHandler                        0x0800015f   Thumb Code     0  startup_stm32f10x_hd.o(.text)
    USBWakeUp_IRQHandler                     0x0800015f   Thumb Code     0  startup_stm32f10x_hd.o(.text)
    USB_HP_CAN1_TX_IRQHandler                0x0800015f   Thumb Code     0  startup_stm32f10x_hd.o(.text)
    USB_LP_CAN1_RX0_IRQHandler               0x0800015f   Thumb Code     0  startup_stm32f10x_hd.o(.text)
    WWDG_IRQHandler                          0x0800015f   Thumb Code     0  startup_stm32f10x_hd.o(.text)
    __aeabi_ldivmod                          0x08000169   Thumb Code    98  ldiv.o(.text)
    __aeabi_memset                           0x080001cb   Thumb Code    14  memseta.o(.text)
    __aeabi_memset4                          0x080001cb   Thumb Code     0  memseta.o(.text)
    __aeabi_memset8                          0x080001cb   Thumb Code     0  memseta.o(.text)
    __aeabi_memclr                           0x080001d9   Thumb Code     4  memseta.o(.text)
    __aeabi_memclr4                          0x080001d9   Thumb Code     0  memseta.o(.text)
    __aeabi_memclr8                          0x080001d9   Thumb Code     0  memseta.o(.text)
    _memset$wrapper                          0x080001dd   Thumb Code    18  memseta.o(.text)
    memcmp                                   0x080001ef   Thumb Code    26  memcmp.o(.text)
    __aeabi_fadd                             0x08000209   Thumb Code   164  fadd.o(.text)
    __aeabi_fsub                             0x080002ad   Thumb Code     6  fadd.o(.text)
    __aeabi_frsub                            0x080002b3   Thumb Code     6  fadd.o(.text)
    __aeabi_fmul                             0x080002b9   Thumb Code   100  fmul.o(.text)
    __aeabi_fdiv                             0x0800031d   Thumb Code   124  fdiv.o(.text)
    __aeabi_dadd                             0x08000399   Thumb Code   322  dadd.o(.text)
    __aeabi_dsub                             0x080004db   Thumb Code     6  dadd.o(.text)
    __aeabi_drsub                            0x080004e1   Thumb Code     6  dadd.o(.text)
    __aeabi_dmul                             0x080004e7   Thumb Code   228  dmul.o(.text)
    __aeabi_ddiv                             0x080005cb   Thumb Code   222  ddiv.o(.text)
    __aeabi_i2f                              0x080006a9   Thumb Code    18  fflti.o(.text)
    __aeabi_ui2f                             0x080006bb   Thumb Code    10  ffltui.o(.text)
    __aeabi_i2d                              0x080006c5   Thumb Code    34  dflti.o(.text)
    __aeabi_ui2d                             0x080006e7   Thumb Code    26  dfltui.o(.text)
    __aeabi_f2iz                             0x08000701   Thumb Code    50  ffixi.o(.text)
    __aeabi_f2uiz                            0x08000733   Thumb Code    40  ffixui.o(.text)
    __aeabi_d2iz                             0x0800075b   Thumb Code    62  dfixi.o(.text)
    __aeabi_d2uiz                            0x08000799   Thumb Code    50  dfixui.o(.text)
    __aeabi_f2d                              0x080007cb   Thumb Code    38  f2d.o(.text)
    __aeabi_cdcmpeq                          0x080007f1   Thumb Code     0  cdcmple.o(.text)
    __aeabi_cdcmple                          0x080007f1   Thumb Code    48  cdcmple.o(.text)
    __aeabi_cdrcmple                         0x08000821   Thumb Code    48  cdrcmple.o(.text)
    __aeabi_d2f                              0x08000851   Thumb Code    56  d2f.o(.text)
    __aeabi_cfcmpeq                          0x08000889   Thumb Code     0  cfcmple.o(.text)
    __aeabi_cfcmple                          0x08000889   Thumb Code    20  cfcmple.o(.text)
    __aeabi_cfrcmple                         0x0800089d   Thumb Code    20  cfrcmple.o(.text)
    __aeabi_uidiv                            0x080008b1   Thumb Code     0  uidiv.o(.text)
    __aeabi_uidivmod                         0x080008b1   Thumb Code    44  uidiv.o(.text)
    __aeabi_uldivmod                         0x080008dd   Thumb Code    98  uldiv.o(.text)
    __aeabi_llsl                             0x0800093f   Thumb Code    30  llshl.o(.text)
    _ll_shift_l                              0x0800093f   Thumb Code     0  llshl.o(.text)
    __aeabi_llsr                             0x0800095d   Thumb Code    32  llushr.o(.text)
    _ll_ushift_r                             0x0800095d   Thumb Code     0  llushr.o(.text)
    __aeabi_lasr                             0x0800097d   Thumb Code    36  llsshr.o(.text)
    _ll_sshift_r                             0x0800097d   Thumb Code     0  llsshr.o(.text)
    __strtod_int                             0x080009d7   Thumb Code    88  strtod.o(.text)
    __I$use$fp                               0x08000a3d   Thumb Code     0  iusefp.o(.text)
    _float_round                             0x08000a3d   Thumb Code    18  fepilogue.o(.text)
    _float_epilogue                          0x08000a4f   Thumb Code    92  fepilogue.o(.text)
    _double_round                            0x08000aab   Thumb Code    30  depilogue.o(.text)
    _double_epilogue                         0x08000ac9   Thumb Code   156  depilogue.o(.text)
    __ARM_scalbn                             0x08000b65   Thumb Code    46  dscalb.o(.text)
    scalbn                                   0x08000b65   Thumb Code     0  dscalb.o(.text)
    __aeabi_d2ulz                            0x08000b93   Thumb Code    48  dfixul.o(.text)
    __scatterload                            0x08000bc5   Thumb Code    28  init.o(.text)
    __scatterload_rt2                        0x08000bc5   Thumb Code     0  init.o(.text)
    isspace                                  0x08000be9   Thumb Code    10  isspace_c.o(.text)
    _scanf_real                              0x08000cf5   Thumb Code     0  scanf_fp.o(.text)
    _scanf_really_real                       0x08000cf5   Thumb Code   556  scanf_fp.o(.text)
    _sgetc                                   0x08000f2d   Thumb Code    30  _sgetc.o(.text)
    _sbackspace                              0x08000f4b   Thumb Code    34  _sgetc.o(.text)
    _dsqrt                                   0x08000f6d   Thumb Code   162  dsqrt.o(.text)
    __ctype_lookup                           0x08001011   Thumb Code    34  ctype_c.o(.text)
    __aeabi_ul2d                             0x08001039   Thumb Code    24  dfltul.o(.text)
    __decompress                             0x08001051   Thumb Code     0  __dczerorl2.o(.text)
    __decompress1                            0x08001051   Thumb Code    86  __dczerorl2.o(.text)
    ADC_Cmd                                  0x080010a7   Thumb Code    22  stm32f10x_adc.o(i.ADC_Cmd)
    ADC_DeInit                               0x080010bd   Thumb Code    78  stm32f10x_adc.o(i.ADC_DeInit)
    ADC_GetCalibrationStatus                 0x08001119   Thumb Code    20  stm32f10x_adc.o(i.ADC_GetCalibrationStatus)
    ADC_GetConversionValue                   0x0800112d   Thumb Code     8  stm32f10x_adc.o(i.ADC_GetConversionValue)
    ADC_GetFlagStatus                        0x08001135   Thumb Code    18  stm32f10x_adc.o(i.ADC_GetFlagStatus)
    ADC_GetResetCalibrationStatus            0x08001147   Thumb Code    20  stm32f10x_adc.o(i.ADC_GetResetCalibrationStatus)
    ADC_Init                                 0x0800115d   Thumb Code    70  stm32f10x_adc.o(i.ADC_Init)
    ADC_RegularChannelConfig                 0x080011ad   Thumb Code   184  stm32f10x_adc.o(i.ADC_RegularChannelConfig)
    ADC_ResetCalibration                     0x08001265   Thumb Code    10  stm32f10x_adc.o(i.ADC_ResetCalibration)
    ADC_SoftwareStartConvCmd                 0x0800126f   Thumb Code    22  stm32f10x_adc.o(i.ADC_SoftwareStartConvCmd)
    ADC_StartCalibration                     0x08001285   Thumb Code    10  stm32f10x_adc.o(i.ADC_StartCalibration)
    AMoto_Inti_select                        0x08001291   Thumb Code   156  my_pwm.o(i.AMoto_Inti_select)
    App_WindCar_Main                         0x08001331   Thumb Code   220  app_windcar.o(i.App_WindCar_Main)
    App_WindCar_Start                        0x08001469   Thumb Code    12  app_windcar.o(i.App_WindCar_Start)
    BMoto_Inti_select                        0x08001479   Thumb Code   160  my_pwm.o(i.BMoto_Inti_select)
    Balance_Control                          0x0800151d   Thumb Code   152  app_tracking.o(i.Balance_Control)
    DMA1_Channel1_IRQHandler                 0x080015cd   Thumb Code    76  drive_interrupt.o(i.DMA1_Channel1_IRQHandler)
    DMA_ClearITPendingBit                    0x08001621   Thumb Code    18  stm32f10x_dma.o(i.DMA_ClearITPendingBit)
    DMP_Init                                 0x0800163d   Thumb Code   220  drive_mpu6050.o(i.DMP_Init)
    EXTI9_5_IRQHandler                       0x08001729   Thumb Code    30  drive_interrupt.o(i.EXTI9_5_IRQHandler)
    EXTI_ClearITPendingBit                   0x0800174d   Thumb Code     6  stm32f10x_exti.o(i.EXTI_ClearITPendingBit)
    EXTI_GetITStatus                         0x08001759   Thumb Code    34  stm32f10x_exti.o(i.EXTI_GetITStatus)
    EXTI_Init                                0x08001781   Thumb Code   142  stm32f10x_exti.o(i.EXTI_Init)
    GPIO_EXTILineConfig                      0x080018a5   Thumb Code    60  stm32f10x_gpio.o(i.GPIO_EXTILineConfig)
    GPIO_Init                                0x080018e5   Thumb Code   278  stm32f10x_gpio.o(i.GPIO_Init)
    GPIO_Key_Init                            0x080019fd   Thumb Code    38  drive_gpio.o(i.GPIO_Key_Init)
    GPIO_ReadInputDataBit                    0x08001a29   Thumb Code    18  stm32f10x_gpio.o(i.GPIO_ReadInputDataBit)
    GPIO_ResetBits                           0x08001a3b   Thumb Code     4  stm32f10x_gpio.o(i.GPIO_ResetBits)
    GPIO_SetBits                             0x08001a3f   Thumb Code     4  stm32f10x_gpio.o(i.GPIO_SetBits)
    GPIO_Tracking_Init                       0x08001a45   Thumb Code    88  drive_gpio.o(i.GPIO_Tracking_Init)
    GPIO_WriteBit                            0x08001aa5   Thumb Code    10  stm32f10x_gpio.o(i.GPIO_WriteBit)
    Get_Adc2                                 0x08001ab1   Thumb Code    46  adc.o(i.Get_Adc2)
    Get_Adc2_Average                         0x08001ae5   Thumb Code    46  adc.o(i.Get_Adc2_Average)
    Get_Angle                                0x08001b15   Thumb Code   432  mpu6050.o(i.Get_Angle)
    I2C_ReadOneByte                          0x08001cf5   Thumb Code    70  drive_ioi2c.o(i.I2C_ReadOneByte)
    IIC_Ack                                  0x08001d3d   Thumb Code    64  drive_ioi2c.o(i.IIC_Ack)
    IIC_Init                                 0x08001d89   Thumb Code    50  drive_ioi2c.o(i.IIC_Init)
    IIC_NAck                                 0x08001dc1   Thumb Code    62  drive_ioi2c.o(i.IIC_NAck)
    IIC_Read_Byte                            0x08001e0d   Thumb Code    98  drive_ioi2c.o(i.IIC_Read_Byte)
    IIC_Send_Byte                            0x08001e7d   Thumb Code    88  drive_ioi2c.o(i.IIC_Send_Byte)
    IIC_Start                                0x08001ee1   Thumb Code    92  drive_ioi2c.o(i.IIC_Start)
    IIC_Stop                                 0x08001f49   Thumb Code    60  drive_ioi2c.o(i.IIC_Stop)
    IIC_Wait_Ack                             0x08001f91   Thumb Code    92  drive_ioi2c.o(i.IIC_Wait_Ack)
    IICreadByte                              0x08001ff9   Thumb Code    22  drive_ioi2c.o(i.IICreadByte)
    IICwriteBit                              0x0800200f   Thumb Code    64  drive_ioi2c.o(i.IICwriteBit)
    IICwriteBits                             0x0800204f   Thumb Code   106  drive_ioi2c.o(i.IICwriteBits)
    IICwriteByte                             0x080020b9   Thumb Code    20  drive_ioi2c.o(i.IICwriteByte)
    IICwriteBytes                            0x080020cd   Thumb Code    70  drive_ioi2c.o(i.IICwriteBytes)
    InitAdc_Init                             0x08002115   Thumb Code   132  adc.o(i.InitAdc_Init)
    Kalman_Filter                            0x080021a1   Thumb Code   558  filter.o(i.Kalman_Filter)
    LcdDisChar                               0x08002419   Thumb Code    72  drive_oled.o(i.LcdDisChar)
    LcdDisplay_HZ                            0x08002461   Thumb Code   172  drive_oled.o(i.LcdDisplay_HZ)
    LeftA_Moto_select                        0x08002511   Thumb Code    72  my_pwm.o(i.LeftA_Moto_select)
    LeftB_Moto_select                        0x0800255d   Thumb Code    72  my_pwm.o(i.LeftB_Moto_select)
    MPU6050_initialize                       0x080025a9   Thumb Code    40  drive_mpu6050.o(i.MPU6050_initialize)
    MPU6050_setClockSource                   0x080025d1   Thumb Code    20  drive_mpu6050.o(i.MPU6050_setClockSource)
    MPU6050_setFullScaleAccelRange           0x080025e5   Thumb Code    20  drive_mpu6050.o(i.MPU6050_setFullScaleAccelRange)
    MPU6050_setFullScaleGyroRange            0x080025f9   Thumb Code    20  drive_mpu6050.o(i.MPU6050_setFullScaleGyroRange)
    MPU6050_setI2CBypassEnabled              0x0800260d   Thumb Code    18  drive_mpu6050.o(i.MPU6050_setI2CBypassEnabled)
    MPU6050_setI2CMasterModeEnabled          0x0800261f   Thumb Code    18  drive_mpu6050.o(i.MPU6050_setI2CMasterModeEnabled)
    MPU6050_setSleepEnabled                  0x08002631   Thumb Code    18  drive_mpu6050.o(i.MPU6050_setSleepEnabled)
    MiniBalance_EXTI_Init                    0x08002645   Thumb Code   104  drive_exti.o(i.MiniBalance_EXTI_Init)
    NVIC_Init                                0x080026b1   Thumb Code   100  misc.o(i.NVIC_Init)
    NVIC_PriorityGroupConfig                 0x08002721   Thumb Code    10  misc.o(i.NVIC_PriorityGroupConfig)
    OLED_CLS                                 0x08002735   Thumb Code    10  drive_oled.o(i.OLED_CLS)
    OLED_Fill                                0x08002741   Thumb Code    74  drive_oled.o(i.OLED_Fill)
    OLED_Init                                0x08002791   Thumb Code   306  drive_oled.o(i.OLED_Init)
    OLED_SetPos                              0x080028cd   Thumb Code    40  drive_oled.o(i.OLED_SetPos)
    OLED_WrCmd                               0x080028f5   Thumb Code    78  drive_oled.o(i.OLED_WrCmd)
    OLED_WrDat                               0x0800294d   Thumb Code    78  drive_oled.o(i.OLED_WrDat)
    OSTask_Creat                             0x080029a5   Thumb Code    30  os_manage.o(i.OSTask_Creat)
    OSThread_4                               0x080029c9   Thumb Code   172  os_run.o(i.OSThread_4)
    OSThread_6                               0x08002a79   Thumb Code   184  os_run.o(i.OSThread_6)
    OSThread_Free                            0x08002b39   Thumb Code   188  os_run.o(i.OSThread_Free)
    OS_Clear                                 0x08002bfd   Thumb Code     8  os_ui.o(i.OS_Clear)
    OS_Decim_Show                            0x08002c05   Thumb Code   380  os_ui.o(i.OS_Decim_Show)
    OS_Init                                  0x08002d89   Thumb Code    32  os_startfile.o(i.OS_Init)
    OS_String_Show                           0x08002da9   Thumb Code   134  os_ui.o(i.OS_String_Show)
    OS_UI_Init                               0x08002e35   Thumb Code    12  os_ui.o(i.OS_UI_Init)
    OSdelay_ms                               0x08002e41   Thumb Code    54  os_startfile.o(i.OSdelay_ms)
    OSdelay_us                               0x08002e7d   Thumb Code    48  os_startfile.o(i.OSdelay_us)
    PID_Control                              0x08002eb1   Thumb Code   380  drive_windcar_control.o(i.PID_Control)
    RCC_ADCCLKConfig                         0x080030b5   Thumb Code    18  stm32f10x_rcc.o(i.RCC_ADCCLKConfig)
    RCC_APB1PeriphClockCmd                   0x080030cd   Thumb Code    26  stm32f10x_rcc.o(i.RCC_APB1PeriphClockCmd)
    RCC_APB2PeriphClockCmd                   0x080030ed   Thumb Code    26  stm32f10x_rcc.o(i.RCC_APB2PeriphClockCmd)
    RCC_APB2PeriphResetCmd                   0x0800310d   Thumb Code    26  stm32f10x_rcc.o(i.RCC_APB2PeriphResetCmd)
    Read_DMP                                 0x0800312d   Thumb Code   560  drive_mpu6050.o(i.Read_DMP)
    Revise_PID                               0x080033e5   Thumb Code     2  drive_usart.o(i.Revise_PID)
    RighA_Moto_select                        0x080033e9   Thumb Code    68  my_pwm.o(i.RighA_Moto_select)
    RighA_PWM                                0x08003431   Thumb Code    14  my_pwm.o(i.RighA_PWM)
    RighB_Moto_select                        0x08003445   Thumb Code    72  my_pwm.o(i.RighB_Moto_select)
    RighB_PWM                                0x08003491   Thumb Code    14  my_pwm.o(i.RighB_PWM)
    SmallCar_BalanceScan_Main                0x0800358d   Thumb Code    66  app_smallcar.o(i.SmallCar_BalanceScan_Main)
    SmallCar_Behind_Control                  0x080035e5   Thumb Code    64  drive_smallcar.o(i.SmallCar_Behind_Control)
    SmallCar_Front_Control                   0x08003629   Thumb Code    64  drive_smallcar.o(i.SmallCar_Front_Control)
    SmallCar_Init                            0x0800366d   Thumb Code   136  drive_smallcar.o(i.SmallCar_Init)
    SmallCar_Tracking                        0x08003705   Thumb Code   854  app_tracking.o(i.SmallCar_Tracking)
    SystemInit                               0x08003a69   Thumb Code    78  system_stm32f10x.o(i.SystemInit)
    TIM1_PWM_Init                            0x08003ac9   Thumb Code   184  my_pwm.o(i.TIM1_PWM_Init)
    TIM2_IRQHandler                          0x08003b89   Thumb Code    22  drive_interrupt.o(i.TIM2_IRQHandler)
    TIM2_Init                                0x08003ba5   Thumb Code    94  drive_timer.o(i.TIM2_Init)
    TIM3_IRQHandler                          0x08003c05   Thumb Code    16  drive_interrupt.o(i.TIM3_IRQHandler)
    TIM3_Init                                0x08003c19   Thumb Code    92  drive_timer.o(i.TIM3_Init)
    TIM3_PWM_Init                            0x08003c79   Thumb Code   166  my_pwm.o(i.TIM3_PWM_Init)
    TIM4_IRQHandler                          0x08003d29   Thumb Code    16  drive_interrupt.o(i.TIM4_IRQHandler)
    TIM4_Init                                0x08003d3d   Thumb Code    92  drive_timer.o(i.TIM4_Init)
    TIM7_IRQHandler                          0x08003d9d   Thumb Code    20  my_tim.o(i.TIM7_IRQHandler)
    TIM_ARRPreloadConfig                     0x08003db5   Thumb Code    24  stm32f10x_tim.o(i.TIM_ARRPreloadConfig)
    TIM_ClearITPendingBit                    0x08003dcd   Thumb Code     6  stm32f10x_tim.o(i.TIM_ClearITPendingBit)
    TIM_Cmd                                  0x08003dd3   Thumb Code    24  stm32f10x_tim.o(i.TIM_Cmd)
    TIM_CtrlPWMOutputs                       0x08003deb   Thumb Code    30  stm32f10x_tim.o(i.TIM_CtrlPWMOutputs)
    TIM_GetCounter                           0x08003e09   Thumb Code     6  stm32f10x_tim.o(i.TIM_GetCounter)
    TIM_GetITStatus                          0x08003e0f   Thumb Code    34  stm32f10x_tim.o(i.TIM_GetITStatus)
    TIM_ITConfig                             0x08003e31   Thumb Code    18  stm32f10x_tim.o(i.TIM_ITConfig)
    TIM_OC1Init                              0x08003e45   Thumb Code   132  stm32f10x_tim.o(i.TIM_OC1Init)
    TIM_OC1PreloadConfig                     0x08003edd   Thumb Code    18  stm32f10x_tim.o(i.TIM_OC1PreloadConfig)
    TIM_OC2Init                              0x08003ef1   Thumb Code   154  stm32f10x_tim.o(i.TIM_OC2Init)
    TIM_OC2PreloadConfig                     0x08003f95   Thumb Code    26  stm32f10x_tim.o(i.TIM_OC2PreloadConfig)
    TIM_SetCompare2                          0x08003faf   Thumb Code     4  stm32f10x_tim.o(i.TIM_SetCompare2)
    TIM_TimeBaseInit                         0x08003fb5   Thumb Code   122  stm32f10x_tim.o(i.TIM_TimeBaseInit)
    USART2_IRQHandler                        0x08004059   Thumb Code   418  drive_usart.o(i.USART2_IRQHandler)
    USART_GetITStatus                        0x08004279   Thumb Code    84  stm32f10x_usart.o(i.USART_GetITStatus)
    USART_ReceiveData                        0x080042cd   Thumb Code    10  stm32f10x_usart.o(i.USART_ReceiveData)
    WindCar_Control_Main                     0x080042d7   Thumb Code    10  app_windcar_control.o(i.WindCar_Control_Main)
    WindCar_Control_Start                    0x080042e1   Thumb Code    10  app_windcar_control.o(i.WindCar_Control_Start)
    Wind_Balance_PID                         0x080042ed   Thumb Code   252  app_tracking.o(i.Wind_Balance_PID)
    Yijielvbo                                0x08004471   Thumb Code   132  filter.o(i.Yijielvbo)
    __0printf                                0x08004505   Thumb Code    22  printfa.o(i.__0printf)
    __1printf                                0x08004505   Thumb Code     0  printfa.o(i.__0printf)
    __2printf                                0x08004505   Thumb Code     0  printfa.o(i.__0printf)
    __c89printf                              0x08004505   Thumb Code     0  printfa.o(i.__0printf)
    printf                                   0x08004505   Thumb Code     0  printfa.o(i.__0printf)
    __0sprintf                               0x08004525   Thumb Code    34  printfa.o(i.__0sprintf)
    __1sprintf                               0x08004525   Thumb Code     0  printfa.o(i.__0sprintf)
    __2sprintf                               0x08004525   Thumb Code     0  printfa.o(i.__0sprintf)
    __c89sprintf                             0x08004525   Thumb Code     0  printfa.o(i.__0sprintf)
    sprintf                                  0x08004525   Thumb Code     0  printfa.o(i.__0sprintf)
    __ARM_fpclassify                         0x0800454d   Thumb Code    40  fpclassify.o(i.__ARM_fpclassify)
    __ieee754_rem_pio2                       0x08004575   Thumb Code   828  rred.o(i.__ieee754_rem_pio2)
    __kernel_cos                             0x080048fd   Thumb Code   230  cos_i.o(i.__kernel_cos)
    __kernel_poly                            0x080049f9   Thumb Code   170  poly.o(i.__kernel_poly)
    __kernel_sin                             0x08004aa5   Thumb Code   224  sin_i.o(i.__kernel_sin)
    __mathlib_dbl_divzero                    0x08004b91   Thumb Code    12  dunder.o(i.__mathlib_dbl_divzero)
    __mathlib_dbl_infnan                     0x08004ba1   Thumb Code     6  dunder.o(i.__mathlib_dbl_infnan)
    __mathlib_dbl_infnan2                    0x08004ba7   Thumb Code     4  dunder.o(i.__mathlib_dbl_infnan2)
    __mathlib_dbl_invalid                    0x08004bab   Thumb Code    12  dunder.o(i.__mathlib_dbl_invalid)
    __mathlib_dbl_overflow                   0x08004bb7   Thumb Code    14  dunder.o(i.__mathlib_dbl_overflow)
    __mathlib_dbl_underflow                  0x08004bc5   Thumb Code    10  dunder.o(i.__mathlib_dbl_underflow)
    __read_errno                             0x08004bd5   Thumb Code     6  errno.o(i.__read_errno)
    __scatterload_copy                       0x08004be1   Thumb Code    14  handlers.o(i.__scatterload_copy)
    __scatterload_null                       0x08004bef   Thumb Code     2  handlers.o(i.__scatterload_null)
    __scatterload_zeroinit                   0x08004bf1   Thumb Code    14  handlers.o(i.__scatterload_zeroinit)
    __set_errno                              0x08004c01   Thumb Code     6  errno.o(i.__set_errno)
    _is_digit                                0x08004d71   Thumb Code    14  scanf_fp.o(i._is_digit)
    asin                                     0x08005561   Thumb Code   572  asin.o(i.asin)
    atan                                     0x080057d1   Thumb Code   474  atan.o(i.atan)
    atan2                                    0x080059f1   Thumb Code   346  atan2.o(i.atan2)
    atof                                     0x08005b71   Thumb Code    42  atof.o(i.atof)
    cos                                      0x08005b9d   Thumb Code   148  cos.o(i.cos)
    dmp_enable_6x_lp_quat                    0x08005c9d   Thumb Code    60  inv_mpu_dmp_motion_driver.o(i.dmp_enable_6x_lp_quat)
    dmp_enable_feature                       0x08005cd9   Thumb Code   530  inv_mpu_dmp_motion_driver.o(i.dmp_enable_feature)
    dmp_enable_gyro_cal                      0x08005ef5   Thumb Code    62  inv_mpu_dmp_motion_driver.o(i.dmp_enable_gyro_cal)
    dmp_enable_lp_quat                       0x08005f4d   Thumb Code    60  inv_mpu_dmp_motion_driver.o(i.dmp_enable_lp_quat)
    dmp_load_motion_driver_firmware          0x08005f89   Thumb Code    20  inv_mpu_dmp_motion_driver.o(i.dmp_load_motion_driver_firmware)
    dmp_read_fifo                            0x08005fa1   Thumb Code   456  inv_mpu_dmp_motion_driver.o(i.dmp_read_fifo)
    dmp_set_accel_bias                       0x0800616d   Thumb Code   300  inv_mpu_dmp_motion_driver.o(i.dmp_set_accel_bias)
    dmp_set_fifo_rate                        0x0800629d   Thumb Code    96  inv_mpu_dmp_motion_driver.o(i.dmp_set_fifo_rate)
    dmp_set_gyro_bias                        0x0800630d   Thumb Code   294  inv_mpu_dmp_motion_driver.o(i.dmp_set_gyro_bias)
    dmp_set_orientation                      0x0800643d   Thumb Code   290  inv_mpu_dmp_motion_driver.o(i.dmp_set_orientation)
    dmp_set_shake_reject_thresh              0x08006575   Thumb Code    56  inv_mpu_dmp_motion_driver.o(i.dmp_set_shake_reject_thresh)
    dmp_set_shake_reject_time                0x080065ad   Thumb Code    38  inv_mpu_dmp_motion_driver.o(i.dmp_set_shake_reject_time)
    dmp_set_shake_reject_timeout             0x080065d3   Thumb Code    38  inv_mpu_dmp_motion_driver.o(i.dmp_set_shake_reject_timeout)
    dmp_set_tap_axes                         0x080065f9   Thumb Code    70  inv_mpu_dmp_motion_driver.o(i.dmp_set_tap_axes)
    dmp_set_tap_count                        0x0800663f   Thumb Code    38  inv_mpu_dmp_motion_driver.o(i.dmp_set_tap_count)
    dmp_set_tap_thresh                       0x08006665   Thumb Code   396  inv_mpu_dmp_motion_driver.o(i.dmp_set_tap_thresh)
    dmp_set_tap_time                         0x08006805   Thumb Code    38  inv_mpu_dmp_motion_driver.o(i.dmp_set_tap_time)
    dmp_set_tap_time_multi                   0x0800682b   Thumb Code    38  inv_mpu_dmp_motion_driver.o(i.dmp_set_tap_time_multi)
    fputc                                    0x08006851   Thumb Code    24  drive_usart.o(i.fputc)
    i2cRead                                  0x08006ea1   Thumb Code   118  drive_ioi2c.o(i.i2cRead)
    i2cWrite                                 0x08006f17   Thumb Code    96  drive_ioi2c.o(i.i2cWrite)
    main                                     0x08006fed   Thumb Code    18  main.o(i.main)
    mpu_configure_fifo                       0x08007005   Thumb Code   106  inv_mpu.o(i.mpu_configure_fifo)
    mpu_get_accel_fsr                        0x08007075   Thumb Code    72  inv_mpu.o(i.mpu_get_accel_fsr)
    mpu_get_accel_sens                       0x080070c1   Thumb Code    78  inv_mpu.o(i.mpu_get_accel_sens)
    mpu_get_fifo_config                      0x08007115   Thumb Code    12  inv_mpu.o(i.mpu_get_fifo_config)
    mpu_get_gyro_fsr                         0x08007125   Thumb Code    64  inv_mpu.o(i.mpu_get_gyro_fsr)
    mpu_get_gyro_sens                        0x08007169   Thumb Code    58  inv_mpu.o(i.mpu_get_gyro_sens)
    mpu_get_lpf                              0x080071b9   Thumb Code    74  inv_mpu.o(i.mpu_get_lpf)
    mpu_get_sample_rate                      0x08007209   Thumb Code    26  inv_mpu.o(i.mpu_get_sample_rate)
    mpu_init                                 0x08007229   Thumb Code   396  inv_mpu.o(i.mpu_init)
    mpu_load_firmware                        0x080073b9   Thumb Code   180  inv_mpu.o(i.mpu_load_firmware)
    mpu_lp_accel_mode                        0x08007471   Thumb Code   218  inv_mpu.o(i.mpu_lp_accel_mode)
    mpu_read_fifo_stream                     0x08007551   Thumb Code   186  inv_mpu.o(i.mpu_read_fifo_stream)
    mpu_read_mem                             0x08007611   Thumb Code   122  inv_mpu.o(i.mpu_read_mem)
    mpu_reset_fifo                           0x08007691   Thumb Code   438  inv_mpu.o(i.mpu_reset_fifo)
    mpu_run_self_test                        0x0800784d   Thumb Code   278  inv_mpu.o(i.mpu_run_self_test)
    mpu_set_accel_fsr                        0x08007969   Thumb Code   126  inv_mpu.o(i.mpu_set_accel_fsr)
    mpu_set_bypass                           0x080079ed   Thumb Code   328  inv_mpu.o(i.mpu_set_bypass)
    mpu_set_dmp_state                        0x08007b39   Thumb Code   138  inv_mpu.o(i.mpu_set_dmp_state)
    mpu_set_gyro_fsr                         0x08007bc9   Thumb Code   132  inv_mpu.o(i.mpu_set_gyro_fsr)
    mpu_set_int_latched                      0x08007c51   Thumb Code   102  inv_mpu.o(i.mpu_set_int_latched)
    mpu_set_lpf                              0x08007cbd   Thumb Code   126  inv_mpu.o(i.mpu_set_lpf)
    mpu_set_sample_rate                      0x08007d41   Thumb Code   152  inv_mpu.o(i.mpu_set_sample_rate)
    mpu_set_sensors                          0x08007ddd   Thumb Code   202  inv_mpu.o(i.mpu_set_sensors)
    mpu_write_mem                            0x08007ead   Thumb Code   122  inv_mpu.o(i.mpu_write_mem)
    myget_ms                                 0x08007f2d   Thumb Code     2  inv_mpu.o(i.myget_ms)
    pidIncrement                             0x08007f31   Thumb Code   352  userpid.o(i.pidIncrement)
    pow                                      0x080080a1   Thumb Code  2478  pow.o(i.pow)
    sqrt                                     0x08008b79   Thumb Code    76  sqrt.o(i.sqrt)
    hw                                       0x080097bc   Data          12  inv_mpu.o(.constdata)
    reg                                      0x080097c8   Data          27  inv_mpu.o(.constdata)
    test                                     0x080097e4   Data          40  inv_mpu.o(.constdata)
    __mathlib_zero                           0x080099b0   Data           8  qnan.o(.constdata)
    __ctype_categories                       0x08009aa8   Data          64  ctype_c.o(.constdata)
    Region$$Table$$Base                      0x08009b1c   Number         0  anon$$obj.o(Region$$Table)
    Region$$Table$$Limit                     0x08009b3c   Number         0  anon$$obj.o(Region$$Table)
    Blance_GetData_Flag                      0x20000000   Data           1  app_smallcar.o(.data)
    Stop_Moto                                0x20000001   Data           1  app_smallcar.o(.data)
    Base_Seed                                0x20000002   Data           2  app_smallcar.o(.data)
    State_flag                               0x20000004   Data           1  app_smallcar.o(.data)
    Tracking_Open_Flag                       0x20000005   Data           1  app_smallcar.o(.data)
    BB_BasisValue                            0x20000008   Data           4  app_smallcar.o(.data)
    App_SmallCar_ChannelScan                 0x2000000c   Data          36  app_smallcar.o(.data)
    App_WindCar                              0x20000050   Data          36  app_windcar.o(.data)
    App_WindCar_Control                      0x20000074   Data          36  app_windcar_control.o(.data)
    OS_Msg                                   0x20000098   Data           4  os_startfile.o(.data)
    OS_Error                                 0x2000009c   Data           4  os_startfile.o(.data)
    OS_Clock                                 0x200000a0   Data           4  os_startfile.o(.data)
    os_fosc                                  0x200000a4   Data           4  os_startfile.o(.data)
    _kP                                      0x200000b0   Data           8  drive_windcar_control.o(.data)
    _kI                                      0x200000b8   Data           8  drive_windcar_control.o(.data)
    _kD                                      0x200000c0   Data           8  drive_windcar_control.o(.data)
    _u0                                      0x200000c8   Data           8  drive_windcar_control.o(.data)
    _eT                                      0x200000d0   Data           8  drive_windcar_control.o(.data)
    PWM_Pre                                  0x200000d8   Data           4  drive_windcar_control.o(.data)
    PWM_Back                                 0x200000dc   Data           4  drive_windcar_control.o(.data)
    gyro                                     0x200000fc   Data           6  drive_mpu6050.o(.data)
    accel                                    0x20000102   Data           6  drive_mpu6050.o(.data)
    sensors                                  0x20000108   Data           2  drive_mpu6050.o(.data)
    Pitch                                    0x2000010c   Data           4  drive_mpu6050.o(.data)
    q0                                       0x20000110   Data           4  drive_mpu6050.o(.data)
    q1                                       0x20000114   Data           4  drive_mpu6050.o(.data)
    q2                                       0x20000118   Data           4  drive_mpu6050.o(.data)
    q3                                       0x2000011c   Data           4  drive_mpu6050.o(.data)
    Gx_offset                                0x2000012a   Data           2  drive_mpu6050.o(.data)
    Gy_offset                                0x2000012c   Data           2  drive_mpu6050.o(.data)
    Gz_offset                                0x2000012e   Data           2  drive_mpu6050.o(.data)
    __stdout                                 0x20000160   Data           4  drive_usart.o(.data)
    USART_RX_STA                             0x20000164   Data           2  drive_usart.o(.data)
    PID_Mode                                 0x20000166   Data           1  drive_usart.o(.data)
    reclen                                   0x20000167   Data           1  drive_usart.o(.data)
    linshi                                   0x20000168   Data           1  drive_usart.o(.data)
    Roll                                     0x20000170   Data           4  mpu6050.o(.data)
    Yaw                                      0x20000174   Data           4  mpu6050.o(.data)
    Angle_Balance                            0x20000178   Data           4  mpu6050.o(.data)
    Gyro_Balance                             0x2000017c   Data           4  mpu6050.o(.data)
    Gyro_Turn                                0x20000180   Data           4  mpu6050.o(.data)
    Yaw_Balance                              0x20000184   Data           4  mpu6050.o(.data)
    Acceleration_Z                           0x20000188   Data           4  mpu6050.o(.data)
    K1                                       0x2000018c   Data           4  filter.o(.data)
    angle                                    0x20000190   Data           4  filter.o(.data)
    angle_dot                                0x20000194   Data           4  filter.o(.data)
    Q_angle                                  0x20000198   Data           4  filter.o(.data)
    Q_gyro                                   0x2000019c   Data           4  filter.o(.data)
    R_angle                                  0x200001a0   Data           4  filter.o(.data)
    dt                                       0x200001a4   Data           4  filter.o(.data)
    C_0                                      0x200001a8   Data           1  filter.o(.data)
    Q_bias                                   0x200001ac   Data           4  filter.o(.data)
    Angle_err                                0x200001b0   Data           4  filter.o(.data)
    PCt_0                                    0x200001b4   Data           4  filter.o(.data)
    PCt_1                                    0x200001b8   Data           4  filter.o(.data)
    E                                        0x200001bc   Data           4  filter.o(.data)
    K_0                                      0x200001c0   Data           4  filter.o(.data)
    K_1                                      0x200001c4   Data           4  filter.o(.data)
    t_0                                      0x200001c8   Data           4  filter.o(.data)
    t_1                                      0x200001cc   Data           4  filter.o(.data)
    PP                                       0x200001d0   Data          16  filter.o(.data)
    Extern_pid_value                         0x200001e4   Data          36  userpid.o(.bss)
    my_pid_value                             0x20000208   Data          36  userpid.o(.bss)
    AppHead                                  0x2000022c   Data          36  os_manage.o(.bss)
    SmallCar                                 0x20000250   Data         300  drive_smallcar.o(.bss)
    USART_RX_BUF                             0x2000038c   Data         200  drive_usart.o(.bss)
    AD_Value                                 0x200004b8   Data          80  adc.o(.bss)
    ADC1aa                                   0x20000508   Data          16  adc.o(.bss)
    Pdot                                     0x20000518   Data          16  filter.o(.bss)
    __initial_sp                             0x20000928   Data           0  startup_stm32f10x_hd.o(STACK)



==============================================================================

Memory Map of the image

  Image Entry point : 0x08000131

  Load Region LR_IROM1 (Base: 0x08000000, Size: 0x00009d20, Max: 0x00040000, ABSOLUTE, COMPRESSED[0x00009bc0])

    Execution Region ER_IROM1 (Base: 0x08000000, Size: 0x00009b3c, Max: 0x00040000, ABSOLUTE)

    Base Addr    Size         Type   Attr      Idx    E Section Name        Object

    0x08000000   0x00000130   Data   RO         2075    RESET               startup_stm32f10x_hd.o
    0x08000130   0x00000000   Code   RO         3690  * .ARM.Collect$$$$00000000  mc_w.l(entry.o)
    0x08000130   0x00000004   Code   RO         4081    .ARM.Collect$$$$00000001  mc_w.l(entry2.o)
    0x08000134   0x00000004   Code   RO         4084    .ARM.Collect$$$$00000004  mc_w.l(entry5.o)
    0x08000138   0x00000000   Code   RO         4086    .ARM.Collect$$$$00000008  mc_w.l(entry7b.o)
    0x08000138   0x00000000   Code   RO         4088    .ARM.Collect$$$$0000000A  mc_w.l(entry8b.o)
    0x08000138   0x00000008   Code   RO         4089    .ARM.Collect$$$$0000000B  mc_w.l(entry9a.o)
    0x08000140   0x00000000   Code   RO         4091    .ARM.Collect$$$$0000000D  mc_w.l(entry10a.o)
    0x08000140   0x00000000   Code   RO         4093    .ARM.Collect$$$$0000000F  mc_w.l(entry11a.o)
    0x08000140   0x00000004   Code   RO         4082    .ARM.Collect$$$$00002712  mc_w.l(entry2.o)
    0x08000144   0x00000024   Code   RO         2076    .text               startup_stm32f10x_hd.o
    0x08000168   0x00000062   Code   RO         3693    .text               mc_w.l(ldiv.o)
    0x080001ca   0x00000024   Code   RO         3695    .text               mc_w.l(memseta.o)
    0x080001ee   0x0000001a   Code   RO         3699    .text               mc_w.l(memcmp.o)
    0x08000208   0x000000b0   Code   RO         3990    .text               mf_w.l(fadd.o)
    0x080002b8   0x00000064   Code   RO         3992    .text               mf_w.l(fmul.o)
    0x0800031c   0x0000007c   Code   RO         3994    .text               mf_w.l(fdiv.o)
    0x08000398   0x0000014e   Code   RO         3996    .text               mf_w.l(dadd.o)
    0x080004e6   0x000000e4   Code   RO         3998    .text               mf_w.l(dmul.o)
    0x080005ca   0x000000de   Code   RO         4000    .text               mf_w.l(ddiv.o)
    0x080006a8   0x00000012   Code   RO         4002    .text               mf_w.l(fflti.o)
    0x080006ba   0x0000000a   Code   RO         4004    .text               mf_w.l(ffltui.o)
    0x080006c4   0x00000022   Code   RO         4006    .text               mf_w.l(dflti.o)
    0x080006e6   0x0000001a   Code   RO         4008    .text               mf_w.l(dfltui.o)
    0x08000700   0x00000032   Code   RO         4010    .text               mf_w.l(ffixi.o)
    0x08000732   0x00000028   Code   RO         4012    .text               mf_w.l(ffixui.o)
    0x0800075a   0x0000003e   Code   RO         4014    .text               mf_w.l(dfixi.o)
    0x08000798   0x00000032   Code   RO         4016    .text               mf_w.l(dfixui.o)
    0x080007ca   0x00000026   Code   RO         4018    .text               mf_w.l(f2d.o)
    0x080007f0   0x00000030   Code   RO         4020    .text               mf_w.l(cdcmple.o)
    0x08000820   0x00000030   Code   RO         4022    .text               mf_w.l(cdrcmple.o)
    0x08000850   0x00000038   Code   RO         4024    .text               mf_w.l(d2f.o)
    0x08000888   0x00000014   Code   RO         4026    .text               mf_w.l(cfcmple.o)
    0x0800089c   0x00000014   Code   RO         4028    .text               mf_w.l(cfrcmple.o)
    0x080008b0   0x0000002c   Code   RO         4095    .text               mc_w.l(uidiv.o)
    0x080008dc   0x00000062   Code   RO         4097    .text               mc_w.l(uldiv.o)
    0x0800093e   0x0000001e   Code   RO         4099    .text               mc_w.l(llshl.o)
    0x0800095c   0x00000020   Code   RO         4101    .text               mc_w.l(llushr.o)
    0x0800097c   0x00000024   Code   RO         4103    .text               mc_w.l(llsshr.o)
    0x080009a0   0x0000009c   Code   RO         4118    .text               mc_w.l(strtod.o)
    0x08000a3c   0x00000000   Code   RO         4120    .text               mc_w.l(iusefp.o)
    0x08000a3c   0x0000006e   Code   RO         4121    .text               mf_w.l(fepilogue.o)
    0x08000aaa   0x000000ba   Code   RO         4123    .text               mf_w.l(depilogue.o)
    0x08000b64   0x0000002e   Code   RO         4125    .text               mf_w.l(dscalb.o)
    0x08000b92   0x00000030   Code   RO         4127    .text               mf_w.l(dfixul.o)
    0x08000bc2   0x00000002   PAD
    0x08000bc4   0x00000024   Code   RO         4129    .text               mc_w.l(init.o)
    0x08000be8   0x0000000a   Code   RO         4131    .text               mc_w.l(isspace_c.o)
    0x08000bf2   0x00000002   PAD
    0x08000bf4   0x00000338   Code   RO         4133    .text               mc_w.l(scanf_fp.o)
    0x08000f2c   0x00000040   Code   RO         4137    .text               mc_w.l(_sgetc.o)
    0x08000f6c   0x000000a2   Code   RO         4139    .text               mf_w.l(dsqrt.o)
    0x0800100e   0x00000002   PAD
    0x08001010   0x00000028   Code   RO         4141    .text               mc_w.l(ctype_c.o)
    0x08001038   0x00000018   Code   RO         4144    .text               mf_w.l(dfltul.o)
    0x08001050   0x00000056   Code   RO         4154    .text               mc_w.l(__dczerorl2.o)
    0x080010a6   0x00000016   Code   RO         2388    i.ADC_Cmd           stm32f10x_adc.o
    0x080010bc   0x0000005c   Code   RO         2390    i.ADC_DeInit        stm32f10x_adc.o
    0x08001118   0x00000014   Code   RO         2396    i.ADC_GetCalibrationStatus  stm32f10x_adc.o
    0x0800112c   0x00000008   Code   RO         2397    i.ADC_GetConversionValue  stm32f10x_adc.o
    0x08001134   0x00000012   Code   RO         2399    i.ADC_GetFlagStatus  stm32f10x_adc.o
    0x08001146   0x00000014   Code   RO         2402    i.ADC_GetResetCalibrationStatus  stm32f10x_adc.o
    0x0800115a   0x00000002   PAD
    0x0800115c   0x00000050   Code   RO         2406    i.ADC_Init          stm32f10x_adc.o
    0x080011ac   0x000000b8   Code   RO         2410    i.ADC_RegularChannelConfig  stm32f10x_adc.o
    0x08001264   0x0000000a   Code   RO         2411    i.ADC_ResetCalibration  stm32f10x_adc.o
    0x0800126e   0x00000016   Code   RO         2413    i.ADC_SoftwareStartConvCmd  stm32f10x_adc.o
    0x08001284   0x0000000a   Code   RO         2415    i.ADC_StartCalibration  stm32f10x_adc.o
    0x0800128e   0x00000002   PAD
    0x08001290   0x000000a0   Code   RO         1863    i.AMoto_Inti_select  my_pwm.o
    0x08001330   0x00000138   Code   RO          387    i.App_WindCar_Main  app_windcar.o
    0x08001468   0x00000010   Code   RO          388    i.App_WindCar_Start  app_windcar.o
    0x08001478   0x000000a4   Code   RO         1864    i.BMoto_Inti_select  my_pwm.o
    0x0800151c   0x000000b0   Code   RO          336    i.Balance_Control   app_tracking.o
    0x080015cc   0x00000054   Code   RO         1022    i.DMA1_Channel1_IRQHandler  drive_interrupt.o
    0x08001620   0x0000001c   Code   RO         3399    i.DMA_ClearITPendingBit  stm32f10x_dma.o
    0x0800163c   0x000000ec   Code   RO         1085    i.DMP_Init          drive_mpu6050.o
    0x08001728   0x00000024   Code   RO         1023    i.EXTI9_5_IRQHandler  drive_interrupt.o
    0x0800174c   0x0000000c   Code   RO         2719    i.EXTI_ClearITPendingBit  stm32f10x_exti.o
    0x08001758   0x00000028   Code   RO         2723    i.EXTI_GetITStatus  stm32f10x_exti.o
    0x08001780   0x00000094   Code   RO         2724    i.EXTI_Init         stm32f10x_exti.o
    0x08001814   0x00000018   Code   RO          875    i.FF_CLK            drive_oled.o
    0x0800182c   0x00000018   Code   RO          876    i.FF_CS             drive_oled.o
    0x08001844   0x00000048   Code   RO          877    i.FF_Init           drive_oled.o
    0x0800188c   0x00000018   Code   RO          878    i.FF_SO             drive_oled.o
    0x080018a4   0x00000040   Code   RO         2607    i.GPIO_EXTILineConfig  stm32f10x_gpio.o
    0x080018e4   0x00000116   Code   RO         2610    i.GPIO_Init         stm32f10x_gpio.o
    0x080019fa   0x00000002   PAD
    0x080019fc   0x0000002c   Code   RO          842    i.GPIO_Key_Init     drive_gpio.o
    0x08001a28   0x00000012   Code   RO         2614    i.GPIO_ReadInputDataBit  stm32f10x_gpio.o
    0x08001a3a   0x00000004   Code   RO         2617    i.GPIO_ResetBits    stm32f10x_gpio.o
    0x08001a3e   0x00000004   Code   RO         2618    i.GPIO_SetBits      stm32f10x_gpio.o
    0x08001a42   0x00000002   PAD
    0x08001a44   0x00000060   Code   RO          845    i.GPIO_Tracking_Init  drive_gpio.o
    0x08001aa4   0x0000000a   Code   RO         2621    i.GPIO_WriteBit     stm32f10x_gpio.o
    0x08001aae   0x00000002   PAD
    0x08001ab0   0x00000034   Code   RO         1820    i.Get_Adc2          adc.o
    0x08001ae4   0x0000002e   Code   RO         1821    i.Get_Adc2_Average  adc.o
    0x08001b12   0x00000002   PAD
    0x08001b14   0x000001e0   Code   RO         2030    i.Get_Angle         mpu6050.o
    0x08001cf4   0x00000046   Code   RO         1196    i.I2C_ReadOneByte   drive_ioi2c.o
    0x08001d3a   0x00000002   PAD
    0x08001d3c   0x0000004c   Code   RO         1197    i.IIC_Ack           drive_ioi2c.o
    0x08001d88   0x00000038   Code   RO         1198    i.IIC_Init          drive_ioi2c.o
    0x08001dc0   0x0000004c   Code   RO         1199    i.IIC_NAck          drive_ioi2c.o
    0x08001e0c   0x00000070   Code   RO         1200    i.IIC_Read_Byte     drive_ioi2c.o
    0x08001e7c   0x00000064   Code   RO         1201    i.IIC_Send_Byte     drive_ioi2c.o
    0x08001ee0   0x00000068   Code   RO         1202    i.IIC_Start         drive_ioi2c.o
    0x08001f48   0x00000048   Code   RO         1203    i.IIC_Stop          drive_ioi2c.o
    0x08001f90   0x00000068   Code   RO         1204    i.IIC_Wait_Ack      drive_ioi2c.o
    0x08001ff8   0x00000016   Code   RO         1205    i.IICreadByte       drive_ioi2c.o
    0x0800200e   0x00000040   Code   RO         1207    i.IICwriteBit       drive_ioi2c.o
    0x0800204e   0x0000006a   Code   RO         1208    i.IICwriteBits      drive_ioi2c.o
    0x080020b8   0x00000014   Code   RO         1209    i.IICwriteByte      drive_ioi2c.o
    0x080020cc   0x00000046   Code   RO         1210    i.IICwriteBytes     drive_ioi2c.o
    0x08002112   0x00000002   PAD
    0x08002114   0x0000008c   Code   RO         1822    i.InitAdc_Init      adc.o
    0x080021a0   0x00000278   Code   RO         2048    i.Kalman_Filter     filter.o
    0x08002418   0x00000048   Code   RO          879    i.LcdDisChar        drive_oled.o
    0x08002460   0x000000b0   Code   RO          881    i.LcdDisplay_HZ     drive_oled.o
    0x08002510   0x0000004c   Code   RO         1865    i.LeftA_Moto_select  my_pwm.o
    0x0800255c   0x0000004c   Code   RO         1867    i.LeftB_Moto_select  my_pwm.o
    0x080025a8   0x00000028   Code   RO         1087    i.MPU6050_initialize  drive_mpu6050.o
    0x080025d0   0x00000014   Code   RO         1089    i.MPU6050_setClockSource  drive_mpu6050.o
    0x080025e4   0x00000014   Code   RO         1090    i.MPU6050_setFullScaleAccelRange  drive_mpu6050.o
    0x080025f8   0x00000014   Code   RO         1091    i.MPU6050_setFullScaleGyroRange  drive_mpu6050.o
    0x0800260c   0x00000012   Code   RO         1092    i.MPU6050_setI2CBypassEnabled  drive_mpu6050.o
    0x0800261e   0x00000012   Code   RO         1093    i.MPU6050_setI2CMasterModeEnabled  drive_mpu6050.o
    0x08002630   0x00000012   Code   RO         1094    i.MPU6050_setSleepEnabled  drive_mpu6050.o
    0x08002642   0x00000002   PAD
    0x08002644   0x0000006c   Code   RO         1007    i.MiniBalance_EXTI_Init  drive_exti.o
    0x080026b0   0x00000070   Code   RO         2146    i.NVIC_Init         misc.o
    0x08002720   0x00000014   Code   RO         2147    i.NVIC_PriorityGroupConfig  misc.o
    0x08002734   0x0000000a   Code   RO          884    i.OLED_CLS          drive_oled.o
    0x0800273e   0x00000002   PAD
    0x08002740   0x00000050   Code   RO          885    i.OLED_Fill         drive_oled.o
    0x08002790   0x0000013c   Code   RO          886    i.OLED_Init         drive_oled.o
    0x080028cc   0x00000028   Code   RO          887    i.OLED_SetPos       drive_oled.o
    0x080028f4   0x00000058   Code   RO          888    i.OLED_WrCmd        drive_oled.o
    0x0800294c   0x00000058   Code   RO          889    i.OLED_WrDat        drive_oled.o
    0x080029a4   0x00000024   Code   RO          587    i.OSTask_Creat      os_manage.o
    0x080029c8   0x000000b0   Code   RO          709    i.OSThread_4        os_run.o
    0x08002a78   0x000000c0   Code   RO          711    i.OSThread_6        os_run.o
    0x08002b38   0x000000c4   Code   RO          713    i.OSThread_Free     os_run.o
    0x08002bfc   0x00000008   Code   RO          668    i.OS_Clear          os_ui.o
    0x08002c04   0x00000184   Code   RO          669    i.OS_Decim_Show     os_ui.o
    0x08002d88   0x00000020   Code   RO          505    i.OS_Init           os_startfile.o
    0x08002da8   0x0000008c   Code   RO          671    i.OS_String_Show    os_ui.o
    0x08002e34   0x0000000c   Code   RO          672    i.OS_UI_Init        os_ui.o
    0x08002e40   0x0000003c   Code   RO          506    i.OSdelay_ms        os_startfile.o
    0x08002e7c   0x00000034   Code   RO          508    i.OSdelay_us        os_startfile.o
    0x08002eb0   0x000001b0   Code   RO          777    i.PID_Control       drive_windcar_control.o
    0x08003060   0x00000054   Code   RO          778    i.PWM_Set           drive_windcar_control.o
    0x080030b4   0x00000018   Code   RO         2182    i.RCC_ADCCLKConfig  stm32f10x_rcc.o
    0x080030cc   0x00000020   Code   RO         2184    i.RCC_APB1PeriphClockCmd  stm32f10x_rcc.o
    0x080030ec   0x00000020   Code   RO         2186    i.RCC_APB2PeriphClockCmd  stm32f10x_rcc.o
    0x0800310c   0x00000020   Code   RO         2187    i.RCC_APB2PeriphResetCmd  stm32f10x_rcc.o
    0x0800312c   0x0000025c   Code   RO         1096    i.Read_DMP          drive_mpu6050.o
    0x08003388   0x0000005c   Code   RO          890    i.Read_FLASH        drive_oled.o
    0x080033e4   0x00000002   Code   RO         1771    i.Revise_PID        drive_usart.o
    0x080033e6   0x00000002   PAD
    0x080033e8   0x00000048   Code   RO         1869    i.RighA_Moto_select  my_pwm.o
    0x08003430   0x00000014   Code   RO         1870    i.RighA_PWM         my_pwm.o
    0x08003444   0x0000004c   Code   RO         1871    i.RighB_Moto_select  my_pwm.o
    0x08003490   0x00000014   Code   RO         1872    i.RighB_PWM         my_pwm.o
    0x080034a4   0x00000008   Code   RO         2080    i.SetSysClock       system_stm32f10x.o
    0x080034ac   0x000000e0   Code   RO         2081    i.SetSysClockTo72   system_stm32f10x.o
    0x0800358c   0x00000058   Code   RO          317    i.SmallCar_BalanceScan_Main  app_smallcar.o
    0x080035e4   0x00000044   Code   RO          800    i.SmallCar_Behind_Control  drive_smallcar.o
    0x08003628   0x00000044   Code   RO          801    i.SmallCar_Front_Control  drive_smallcar.o
    0x0800366c   0x00000098   Code   RO          802    i.SmallCar_Init     drive_smallcar.o
    0x08003704   0x00000364   Code   RO          339    i.SmallCar_Tracking  app_tracking.o
    0x08003a68   0x00000060   Code   RO         2083    i.SystemInit        system_stm32f10x.o
    0x08003ac8   0x000000c0   Code   RO         1873    i.TIM1_PWM_Init     my_pwm.o
    0x08003b88   0x0000001c   Code   RO         1024    i.TIM2_IRQHandler   drive_interrupt.o
    0x08003ba4   0x0000005e   Code   RO          980    i.TIM2_Init         drive_timer.o
    0x08003c02   0x00000002   PAD
    0x08003c04   0x00000014   Code   RO         1025    i.TIM3_IRQHandler   drive_interrupt.o
    0x08003c18   0x00000060   Code   RO          981    i.TIM3_Init         drive_timer.o
    0x08003c78   0x000000b0   Code   RO         1874    i.TIM3_PWM_Init     my_pwm.o
    0x08003d28   0x00000014   Code   RO         1026    i.TIM4_IRQHandler   drive_interrupt.o
    0x08003d3c   0x00000060   Code   RO          982    i.TIM4_Init         drive_timer.o
    0x08003d9c   0x00000018   Code   RO         1945    i.TIM7_IRQHandler   my_tim.o
    0x08003db4   0x00000018   Code   RO         2776    i.TIM_ARRPreloadConfig  stm32f10x_tim.o
    0x08003dcc   0x00000006   Code   RO         2783    i.TIM_ClearITPendingBit  stm32f10x_tim.o
    0x08003dd2   0x00000018   Code   RO         2788    i.TIM_Cmd           stm32f10x_tim.o
    0x08003dea   0x0000001e   Code   RO         2790    i.TIM_CtrlPWMOutputs  stm32f10x_tim.o
    0x08003e08   0x00000006   Code   RO         2807    i.TIM_GetCounter    stm32f10x_tim.o
    0x08003e0e   0x00000022   Code   RO         2809    i.TIM_GetITStatus   stm32f10x_tim.o
    0x08003e30   0x00000012   Code   RO         2813    i.TIM_ITConfig      stm32f10x_tim.o
    0x08003e42   0x00000002   PAD
    0x08003e44   0x00000098   Code   RO         2817    i.TIM_OC1Init       stm32f10x_tim.o
    0x08003edc   0x00000012   Code   RO         2820    i.TIM_OC1PreloadConfig  stm32f10x_tim.o
    0x08003eee   0x00000002   PAD
    0x08003ef0   0x000000a4   Code   RO         2822    i.TIM_OC2Init       stm32f10x_tim.o
    0x08003f94   0x0000001a   Code   RO         2825    i.TIM_OC2PreloadConfig  stm32f10x_tim.o
    0x08003fae   0x00000004   Code   RO         2850    i.TIM_SetCompare2   stm32f10x_tim.o
    0x08003fb2   0x00000002   PAD
    0x08003fb4   0x000000a4   Code   RO         2859    i.TIM_TimeBaseInit  stm32f10x_tim.o
    0x08004058   0x00000220   Code   RO         1772    i.USART2_IRQHandler  drive_usart.o
    0x08004278   0x00000054   Code   RO         3478    i.USART_GetITStatus  stm32f10x_usart.o
    0x080042cc   0x0000000a   Code   RO         3488    i.USART_ReceiveData  stm32f10x_usart.o
    0x080042d6   0x0000000a   Code   RO          412    i.WindCar_Control_Main  app_windcar_control.o
    0x080042e0   0x0000000a   Code   RO          413    i.WindCar_Control_Start  app_windcar_control.o
    0x080042ea   0x00000002   PAD
    0x080042ec   0x00000118   Code   RO          340    i.Wind_Balance_PID  app_tracking.o
    0x08004404   0x0000006c   Code   RO          891    i.Write_FF          drive_oled.o
    0x08004470   0x00000094   Code   RO         2049    i.Yijielvbo         filter.o
    0x08004504   0x00000020   Code   RO         3934    i.__0printf         mc_w.l(printfa.o)
    0x08004524   0x00000028   Code   RO         3936    i.__0sprintf        mc_w.l(printfa.o)
    0x0800454c   0x00000028   Code   RO         4057    i.__ARM_fpclassify  m_ws.l(fpclassify.o)
    0x08004574   0x00000388   Code   RO         4062    i.__ieee754_rem_pio2  m_ws.l(rred.o)
    0x080048fc   0x000000fc   Code   RO         4040    i.__kernel_cos      m_ws.l(cos_i.o)
    0x080049f8   0x000000aa   Code   RO         4059    i.__kernel_poly     m_ws.l(poly.o)
    0x08004aa2   0x00000002   PAD
    0x08004aa4   0x000000ec   Code   RO         4067    i.__kernel_sin      m_ws.l(sin_i.o)
    0x08004b90   0x00000010   Code   RO         4043    i.__mathlib_dbl_divzero  m_ws.l(dunder.o)
    0x08004ba0   0x00000006   Code   RO         4044    i.__mathlib_dbl_infnan  m_ws.l(dunder.o)
    0x08004ba6   0x00000004   Code   RO         4045    i.__mathlib_dbl_infnan2  m_ws.l(dunder.o)
    0x08004baa   0x0000000c   Code   RO         4046    i.__mathlib_dbl_invalid  m_ws.l(dunder.o)
    0x08004bb6   0x0000000e   Code   RO         4047    i.__mathlib_dbl_overflow  m_ws.l(dunder.o)
    0x08004bc4   0x00000010   Code   RO         4049    i.__mathlib_dbl_underflow  m_ws.l(dunder.o)
    0x08004bd4   0x0000000c   Code   RO         4112    i.__read_errno      mc_w.l(errno.o)
    0x08004be0   0x0000000e   Code   RO         4148    i.__scatterload_copy  mc_w.l(handlers.o)
    0x08004bee   0x00000002   Code   RO         4149    i.__scatterload_null  mc_w.l(handlers.o)
    0x08004bf0   0x0000000e   Code   RO         4150    i.__scatterload_zeroinit  mc_w.l(handlers.o)
    0x08004bfe   0x00000002   PAD
    0x08004c00   0x0000000c   Code   RO         4113    i.__set_errno       mc_w.l(errno.o)
    0x08004c0c   0x00000164   Code   RO         3941    i._fp_digits        mc_w.l(printfa.o)
    0x08004d70   0x0000000e   Code   RO         4135    i._is_digit         mc_w.l(scanf_fp.o)
    0x08004d7e   0x00000002   PAD
    0x08004d80   0x000006dc   Code   RO         3942    i._printf_core      mc_w.l(printfa.o)
    0x0800545c   0x00000024   Code   RO         3943    i._printf_post_padding  mc_w.l(printfa.o)
    0x08005480   0x0000002e   Code   RO         3944    i._printf_pre_padding  mc_w.l(printfa.o)
    0x080054ae   0x0000000a   Code   RO         3946    i._sputc            mc_w.l(printfa.o)
    0x080054b8   0x000000a8   Code   RO         1483    i.accel_self_test   inv_mpu.o
    0x08005560   0x00000270   Code   RO         3651    i.asin              m_ws.l(asin.o)
    0x080057d0   0x00000220   Code   RO         4031    i.atan              m_ws.l(atan.o)
    0x080059f0   0x00000180   Code   RO         3661    i.atan2             m_ws.l(atan2.o)
    0x08005b70   0x0000002a   Code   RO         3669    i.atof              m_ws.l(atof.o)
    0x08005b9a   0x00000002   PAD
    0x08005b9c   0x0000009c   Code   RO         3673    i.cos               m_ws.l(cos.o)
    0x08005c38   0x00000064   Code   RO         1307    i.decode_gesture    inv_mpu_dmp_motion_driver.o
    0x08005c9c   0x0000003c   Code   RO         1308    i.dmp_enable_6x_lp_quat  inv_mpu_dmp_motion_driver.o
    0x08005cd8   0x0000021c   Code   RO         1309    i.dmp_enable_feature  inv_mpu_dmp_motion_driver.o
    0x08005ef4   0x00000058   Code   RO         1310    i.dmp_enable_gyro_cal  inv_mpu_dmp_motion_driver.o
    0x08005f4c   0x0000003c   Code   RO         1311    i.dmp_enable_lp_quat  inv_mpu_dmp_motion_driver.o
    0x08005f88   0x00000018   Code   RO         1316    i.dmp_load_motion_driver_firmware  inv_mpu_dmp_motion_driver.o
    0x08005fa0   0x000001cc   Code   RO         1317    i.dmp_read_fifo     inv_mpu_dmp_motion_driver.o
    0x0800616c   0x00000130   Code   RO         1320    i.dmp_set_accel_bias  inv_mpu_dmp_motion_driver.o
    0x0800629c   0x00000070   Code   RO         1321    i.dmp_set_fifo_rate  inv_mpu_dmp_motion_driver.o
    0x0800630c   0x00000130   Code   RO         1322    i.dmp_set_gyro_bias  inv_mpu_dmp_motion_driver.o
    0x0800643c   0x00000138   Code   RO         1324    i.dmp_set_orientation  inv_mpu_dmp_motion_driver.o
    0x08006574   0x00000038   Code   RO         1327    i.dmp_set_shake_reject_thresh  inv_mpu_dmp_motion_driver.o
    0x080065ac   0x00000026   Code   RO         1328    i.dmp_set_shake_reject_time  inv_mpu_dmp_motion_driver.o
    0x080065d2   0x00000026   Code   RO         1329    i.dmp_set_shake_reject_timeout  inv_mpu_dmp_motion_driver.o
    0x080065f8   0x00000046   Code   RO         1330    i.dmp_set_tap_axes  inv_mpu_dmp_motion_driver.o
    0x0800663e   0x00000026   Code   RO         1331    i.dmp_set_tap_count  inv_mpu_dmp_motion_driver.o
    0x08006664   0x000001a0   Code   RO         1332    i.dmp_set_tap_thresh  inv_mpu_dmp_motion_driver.o
    0x08006804   0x00000026   Code   RO         1333    i.dmp_set_tap_time  inv_mpu_dmp_motion_driver.o
    0x0800682a   0x00000026   Code   RO         1334    i.dmp_set_tap_time_multi  inv_mpu_dmp_motion_driver.o
    0x08006850   0x0000001c   Code   RO         1774    i.fputc             drive_usart.o
    0x0800686c   0x000000b4   Code   RO         1484    i.get_accel_prod_shift  inv_mpu.o
    0x08006920   0x00000470   Code   RO         1485    i.get_st_biases     inv_mpu.o
    0x08006d90   0x00000110   Code   RO         1486    i.gyro_self_test    inv_mpu.o
    0x08006ea0   0x00000076   Code   RO         1211    i.i2cRead           drive_ioi2c.o
    0x08006f16   0x00000060   Code   RO         1212    i.i2cWrite          drive_ioi2c.o
    0x08006f76   0x00000028   Code   RO         1098    i.inv_orientation_matrix_to_scalar  drive_mpu6050.o
    0x08006f9e   0x0000004e   Code   RO         1099    i.inv_row_2_scale   drive_mpu6050.o
    0x08006fec   0x00000018   Code   RO          437    i.main              main.o
    0x08007004   0x00000070   Code   RO         1487    i.mpu_configure_fifo  inv_mpu.o
    0x08007074   0x0000004c   Code   RO         1488    i.mpu_get_accel_fsr  inv_mpu.o
    0x080070c0   0x00000054   Code   RO         1490    i.mpu_get_accel_sens  inv_mpu.o
    0x08007114   0x00000010   Code   RO         1495    i.mpu_get_fifo_config  inv_mpu.o
    0x08007124   0x00000044   Code   RO         1496    i.mpu_get_gyro_fsr  inv_mpu.o
    0x08007168   0x00000050   Code   RO         1498    i.mpu_get_gyro_sens  inv_mpu.o
    0x080071b8   0x00000050   Code   RO         1500    i.mpu_get_lpf       inv_mpu.o
    0x08007208   0x00000020   Code   RO         1502    i.mpu_get_sample_rate  inv_mpu.o
    0x08007228   0x00000190   Code   RO         1504    i.mpu_init          inv_mpu.o
    0x080073b8   0x000000b8   Code   RO         1505    i.mpu_load_firmware  inv_mpu.o
    0x08007470   0x000000e0   Code   RO         1506    i.mpu_lp_accel_mode  inv_mpu.o
    0x08007550   0x000000c0   Code   RO         1509    i.mpu_read_fifo_stream  inv_mpu.o
    0x08007610   0x00000080   Code   RO         1510    i.mpu_read_mem      inv_mpu.o
    0x08007690   0x000001bc   Code   RO         1513    i.mpu_reset_fifo    inv_mpu.o
    0x0800784c   0x0000011c   Code   RO         1514    i.mpu_run_self_test  inv_mpu.o
    0x08007968   0x00000084   Code   RO         1516    i.mpu_set_accel_fsr  inv_mpu.o
    0x080079ec   0x0000014c   Code   RO         1517    i.mpu_set_bypass    inv_mpu.o
    0x08007b38   0x00000090   Code   RO         1519    i.mpu_set_dmp_state  inv_mpu.o
    0x08007bc8   0x00000088   Code   RO         1520    i.mpu_set_gyro_fsr  inv_mpu.o
    0x08007c50   0x0000006c   Code   RO         1521    i.mpu_set_int_latched  inv_mpu.o
    0x08007cbc   0x00000084   Code   RO         1523    i.mpu_set_lpf       inv_mpu.o
    0x08007d40   0x0000009c   Code   RO         1524    i.mpu_set_sample_rate  inv_mpu.o
    0x08007ddc   0x000000d0   Code   RO         1525    i.mpu_set_sensors   inv_mpu.o
    0x08007eac   0x00000080   Code   RO         1526    i.mpu_write_mem     inv_mpu.o
    0x08007f2c   0x00000002   Code   RO         1527    i.myget_ms          inv_mpu.o
    0x08007f2e   0x00000002   PAD
    0x08007f30   0x00000170   Code   RO          451    i.pidIncrement      userpid.o
    0x080080a0   0x000009b8   Code   RO         3681    i.pow               m_ws.l(pow.o)
    0x08008a58   0x00000090   Code   RO         1100    i.run_self_test     drive_mpu6050.o
    0x08008ae8   0x00000090   Code   RO         1528    i.set_int_enable    inv_mpu.o
    0x08008b78   0x0000004c   Code   RO         4074    i.sqrt              m_ws.l(sqrt.o)
    0x08008bc4   0x00000bf6   Data   RO         1336    .constdata          inv_mpu_dmp_motion_driver.o
    0x080097ba   0x00000002   PAD
    0x080097bc   0x00000050   Data   RO         1529    .constdata          inv_mpu.o
    0x0800980c   0x00000004   PAD
    0x08009810   0x00000050   Data   RO         3652    .constdata          m_ws.l(asin.o)
    0x08009860   0x00000088   Data   RO         3682    .constdata          m_ws.l(pow.o)
    0x080098e8   0x00000098   Data   RO         4032    .constdata          m_ws.l(atan.o)
    0x08009980   0x00000030   Data   RO         4041    .constdata          m_ws.l(cos_i.o)
    0x080099b0   0x00000008   Data   RO         4061    .constdata          m_ws.l(qnan.o)
    0x080099b8   0x000000c8   Data   RO         4064    .constdata          m_ws.l(rred.o)
    0x08009a80   0x00000028   Data   RO         4068    .constdata          m_ws.l(sin_i.o)
    0x08009aa8   0x00000040   Data   RO         4142    .constdata          mc_w.l(ctype_c.o)
    0x08009ae8   0x00000015   Data   RO          318    .conststring        app_smallcar.o
    0x08009afd   0x00000003   PAD
    0x08009b00   0x0000000c   Data   RO          389    .conststring        app_windcar.o
    0x08009b0c   0x00000010   Data   RO          414    .conststring        app_windcar_control.o
    0x08009b1c   0x00000020   Data   RO         4146    Region$$Table       anon$$obj.o


    Execution Region RW_IRAM1 (Base: 0x20000000, Size: 0x00000928, Max: 0x000c0000, ABSOLUTE, COMPRESSED[0x00000084])

    Base Addr    Size         Type   Attr      Idx    E Section Name        Object

    0x20000000   0x00000030   Data   RW          319    .data               app_smallcar.o
    0x20000030   0x00000020   Data   RW          343    .data               app_tracking.o
    0x20000050   0x00000024   Data   RW          390    .data               app_windcar.o
    0x20000074   0x00000024   Data   RW          415    .data               app_windcar_control.o
    0x20000098   0x00000010   Data   RW          509    .data               os_startfile.o
    0x200000a8   0x00000001   Data   RW          673    .data               os_ui.o
    0x200000a9   0x00000007   PAD
    0x200000b0   0x00000049   Data   RW          779    .data               drive_windcar_control.o
    0x200000f9   0x00000003   PAD
    0x200000fc   0x00000035   Data   RW         1102    .data               drive_mpu6050.o
    0x20000131   0x00000003   PAD
    0x20000134   0x0000002c   Data   RW         1530    .data               inv_mpu.o
    0x20000160   0x0000000d   Data   RW         1777    .data               drive_usart.o
    0x2000016d   0x00000003   PAD
    0x20000170   0x0000001c   Data   RW         2031    .data               mpu6050.o
    0x2000018c   0x00000054   Data   RW         2051    .data               filter.o
    0x200001e0   0x00000004   Data   RW         4114    .data               mc_w.l(errno.o)
    0x200001e4   0x00000048   Zero   RW          454    .bss                userpid.o
    0x2000022c   0x00000024   Zero   RW          590    .bss                os_manage.o
    0x20000250   0x0000012c   Zero   RW          805    .bss                drive_smallcar.o
    0x2000037c   0x00000010   Zero   RW         1335    .bss                inv_mpu_dmp_motion_driver.o
    0x2000038c   0x0000012c   Zero   RW         1776    .bss                drive_usart.o
    0x200004b8   0x00000060   Zero   RW         1823    .bss                adc.o
    0x20000518   0x00000010   Zero   RW         2050    .bss                filter.o
    0x20000528   0x00000400   Zero   RW         2073    STACK               startup_stm32f10x_hd.o


==============================================================================

Image component sizes


      Code (inc. data)   RO Data    RW Data    ZI Data      Debug   Object Name

       238         14          0          0         96       2632   adc.o
        88         22         21         48          0       1203   app_smallcar.o
         0          0          0          0          0     257743   app_test.o
      1324         66          0         32          0       3589   app_tracking.o
       328         96         12         36          0       1473   app_windcar.o
        20          0         16         36          0       1429   app_windcar_control.o
       108          4          0          0          0        652   drive_exti.o
       140         14          0          0          0       1121   drive_gpio.o
       188         28          0          0          0       2678   drive_interrupt.o
      1266         94          0          0          0      10743   drive_ioi2c.o
      1256         60          0         53          0      23887   drive_mpu6050.o
      1214         72          0          0          0       8928   drive_oled.o
       288         24          0          0        300       2842   drive_smallcar.o
       286          8          0          0          0       1780   drive_timer.o
       574        130          0         13        300       4100   drive_usart.o
       516         60          0         73          0       1865   drive_windcar_control.o
       780         90          0         84         16       2406   filter.o
      5782        204         80         44          0      27178   inv_mpu.o
      3096        122       3062          0         16      20686   inv_mpu_dmp_motion_driver.o
        24          6          0          0          0        483   main.o
       132         22          0          0          0       1607   misc.o
       480         48          0         28          0       1423   mpu6050.o
      1032         54          0          0          0       6272   my_pwm.o
        24          4          0          0          0        502   my_tim.o
        36          6          0          0         36       2768   os_manage.o
       564         20          0          0          0       2442   os_run.o
       144         10          0         16          0       2059   os_startfile.o
       548         14          0          1          0       3093   os_ui.o
        36          8        304          0       1024        840   startup_stm32f10x_hd.o
       486         24          0          0          0       8838   stm32f10x_adc.o
        28         10          0          0          0        552   stm32f10x_dma.o
       200         18          0          0          0       2204   stm32f10x_exti.o
       378          4          0          0          0       5026   stm32f10x_gpio.o
       120         24          0          0          0       2358   stm32f10x_rcc.o
       670         72          0          0          0       8711   stm32f10x_tim.o
        94          0          0          0          0       2792   stm32f10x_usart.o
         0          0          0          0          0         32   sys.o
       328         28          0          0          0       2129   system_stm32f10x.o
       368         16          0          0         72       1864   userpid.o

    ----------------------------------------------------------------------
     23218       1496       3536        480       1860     432930   Object Totals
         0          0         32          0          0          0   (incl. Generated)
        34          0          9         16          0          0   (incl. Padding)

    ----------------------------------------------------------------------

      Code (inc. data)   RO Data    RW Data    ZI Data      Debug   Library Member Name

       624         52         80          0          0        168   asin.o
       544         70        152          0          0        124   atan.o
       384         38          0          0          0        144   atan2.o
        42          0          0          0          0         84   atof.o
       156          8          0          0          0        104   cos.o
       252         22         48          0          0        124   cos_i.o
        68         10          0          0          0        408   dunder.o
        40          0          0          0          0         68   fpclassify.o
       170          0          0          0          0         96   poly.o
      2488        190        136          0          0        300   pow.o
         0          0          8          0          0          0   qnan.o
       904         76        200          0          0        140   rred.o
       236         12         40          0          0        128   sin_i.o
        76          0          0          0          0         84   sqrt.o
        86          0          0          0          0          0   __dczerorl2.o
        64          0          0          0          0         84   _sgetc.o
        40          6         64          0          0         68   ctype_c.o
         0          0          0          0          0          0   entry.o
         0          0          0          0          0          0   entry10a.o
         0          0          0          0          0          0   entry11a.o
         8          4          0          0          0          0   entry2.o
         4          0          0          0          0          0   entry5.o
         0          0          0          0          0          0   entry7b.o
         0          0          0          0          0          0   entry8b.o
         8          4          0          0          0          0   entry9a.o
        24         12          0          4          0        136   errno.o
        30          0          0          0          0          0   handlers.o
        36          8          0          0          0         68   init.o
        10          0          0          0          0         68   isspace_c.o
         0          0          0          0          0          0   iusefp.o
        98          0          0          0          0         84   ldiv.o
        30          0          0          0          0         68   llshl.o
        36          0          0          0          0         68   llsshr.o
        32          0          0          0          0         68   llushr.o
        26          0          0          0          0         80   memcmp.o
        36          0          0          0          0        108   memseta.o
      2276         96          0          0          0        596   printfa.o
       838         12          0          0          0        216   scanf_fp.o
       156         14          0          0          0        120   strtod.o
        44          0          0          0          0         80   uidiv.o
        98          0          0          0          0         92   uldiv.o
        48          0          0          0          0         68   cdcmple.o
        48          0          0          0          0         68   cdrcmple.o
        20          0          0          0          0         68   cfcmple.o
        20          0          0          0          0         68   cfrcmple.o
        56          0          0          0          0         88   d2f.o
       334          0          0          0          0        148   dadd.o
       222          0          0          0          0        100   ddiv.o
       186          0          0          0          0        176   depilogue.o
        62          0          0          0          0         80   dfixi.o
        50          0          0          0          0         76   dfixui.o
        48          0          0          0          0         68   dfixul.o
        34          0          0          0          0         76   dflti.o
        26          0          0          0          0         76   dfltui.o
        24          0          0          0          0         76   dfltul.o
       228          0          0          0          0         96   dmul.o
        46          0          0          0          0         80   dscalb.o
       162          0          0          0          0        100   dsqrt.o
        38          0          0          0          0         68   f2d.o
       176          0          0          0          0        140   fadd.o
       124          0          0          0          0         88   fdiv.o
       110          0          0          0          0        168   fepilogue.o
        50          0          0          0          0         68   ffixi.o
        40          0          0          0          0         68   ffixui.o
        18          0          0          0          0         68   fflti.o
        10          0          0          0          0         68   ffltui.o
       100          0          0          0          0         76   fmul.o

    ----------------------------------------------------------------------
     12258        634        728          4          0       6300   Library Totals
        14          0          0          0          0          0   (incl. Padding)

    ----------------------------------------------------------------------

      Code (inc. data)   RO Data    RW Data    ZI Data      Debug   Library Name

      5984        478        664          0          0       1972   m_ws.l
      3980        156         64          4          0       2004   mc_w.l
      2280          0          0          0          0       2324   mf_w.l

    ----------------------------------------------------------------------
     12258        634        728          4          0       6300   Library Totals

    ----------------------------------------------------------------------

==============================================================================


      Code (inc. data)   RO Data    RW Data    ZI Data      Debug   

     35476       2130       4264        484       1860     426306   Grand Totals
     35476       2130       4264        132       1860     426306   ELF Image Totals (compressed)
     35476       2130       4264        132          0          0   ROM Totals

==============================================================================

    Total RO  Size (Code + RO Data)                39740 (  38.81kB)
    Total RW  Size (RW Data + ZI Data)              2344 (   2.29kB)
    Total ROM Size (Code + RO Data + RW Data)      39872 (  38.94kB)

==============================================================================

